   1               		.file	"CDC.c"
   2               	__SREG__ = 0x3f
   3               	__SP_H__ = 0x3e
   4               	__SP_L__ = 0x3d
   5               	__CCP__ = 0x34
   6               	__tmp_reg__ = 0
   7               	__zero_reg__ = 1
  15               	.Ltext0:
  16               		.section	.text.DCOMP_CDC_Host_NextCDCControlInterface,"ax",@progbits
  18               	DCOMP_CDC_Host_NextCDCControlInterface:
  19               	.LFB126:
  20               	.LSM0:
  21               	.LVL0:
  22               	/* prologue: function */
  23               	/* frame size = 0 */
  24               	/* stack size = 0 */
  25               	.L__stack_usage = 0
  26 0000 FC01      		movw r30,r24
  27               	.LVL1:
  28               	.LSM1:
  29 0002 8181      		ldd r24,Z+1
  30               	.LVL2:
  31 0004 8430      		cpi r24,lo8(4)
  32 0006 01F0      		breq .L8
  33               	.L5:
  34               	.LBB98:
  35               	.LSM2:
  36 0008 82E0      		ldi r24,lo8(2)
  37 000a 0895      		ret
  38               	.L8:
  39               	.LVL3:
  40               	.LSM3:
  41 000c 8581      		ldd r24,Z+5
  42 000e 8230      		cpi r24,lo8(2)
  43 0010 01F4      		brne .L5
  44               	.LSM4:
  45 0012 8681      		ldd r24,Z+6
  46 0014 8230      		cpi r24,lo8(2)
  47 0016 01F4      		brne .L5
  48               	.LSM5:
  49 0018 8781      		ldd r24,Z+7
  50 001a 8130      		cpi r24,lo8(1)
  51 001c 01F4      		brne .L5
  52               	.LSM6:
  53 001e 80E0      		ldi r24,lo8(0)
  54               	.LBE98:
  55               	.LSM7:
  56 0020 0895      		ret
  57               	.LFE126:
  59               		.section	.text.DCOMP_CDC_Host_NextCDCDataInterface,"ax",@progbits
  61               	DCOMP_CDC_Host_NextCDCDataInterface:
  62               	.LFB127:
  63               	.LSM8:
  64               	.LVL4:
  65               	/* prologue: function */
  66               	/* frame size = 0 */
  67               	/* stack size = 0 */
  68               	.L__stack_usage = 0
  69 0000 FC01      		movw r30,r24
  70               	.LVL5:
  71               	.LSM9:
  72 0002 8181      		ldd r24,Z+1
  73               	.LVL6:
  74 0004 8430      		cpi r24,lo8(4)
  75 0006 01F0      		breq .L15
  76               	.L13:
  77               	.LBB99:
  78               	.LSM10:
  79 0008 82E0      		ldi r24,lo8(2)
  80 000a 0895      		ret
  81               	.L15:
  82               	.LVL7:
  83               	.LSM11:
  84 000c 8581      		ldd r24,Z+5
  85 000e 8A30      		cpi r24,lo8(10)
  86 0010 01F4      		brne .L13
  87               	.LSM12:
  88 0012 8681      		ldd r24,Z+6
  89 0014 8823      		tst r24
  90 0016 01F4      		brne .L13
  91               	.LSM13:
  92 0018 8781      		ldd r24,Z+7
  93 001a 8823      		tst r24
  94 001c 01F4      		brne .L13
  95               	.LSM14:
  96 001e 80E0      		ldi r24,lo8(0)
  97               	.LBE99:
  98               	.LSM15:
  99 0020 0895      		ret
 100               	.LFE127:
 102               		.section	.text.DCOMP_CDC_Host_NextCDCInterfaceEndpoint,"ax",@progbits
 104               	DCOMP_CDC_Host_NextCDCInterfaceEndpoint:
 105               	.LFB128:
 106               	.LSM16:
 107               	.LVL8:
 108               	/* prologue: function */
 109               	/* frame size = 0 */
 110               	/* stack size = 0 */
 111               	.L__stack_usage = 0
 112 0000 FC01      		movw r30,r24
 113               	.LVL9:
 114               	.LSM17:
 115 0002 8181      		ldd r24,Z+1
 116               	.LVL10:
 117 0004 8530      		cpi r24,lo8(5)
 118 0006 01F0      		breq .L22
 119               	.LSM18:
 120 0008 8430      		cpi r24,lo8(4)
 121 000a 01F0      		breq .L21
 122               	.LVL11:
 123               	.L19:
 124               	.LBB100:
 125               	.LSM19:
 126 000c 82E0      		ldi r24,lo8(2)
 127 000e 0895      		ret
 128               	.LVL12:
 129               	.L22:
 130               	.LSM20:
 131 0010 8381      		ldd r24,Z+3
 132 0012 8370      		andi r24,lo8(3)
 133               	.LSM21:
 134 0014 8250      		subi r24,lo8(-(-2))
 135 0016 8230      		cpi r24,lo8(2)
 136 0018 00F4      		brsh .L19
 137               	.LSM22:
 138 001a 8281      		ldd r24,Z+2
 139 001c 0E94 0000 		call Pipe_IsEndpointBound
 140               	.LVL13:
 141               	.LSM23:
 142 0020 8823      		tst r24
 143 0022 01F4      		brne .L19
 144               	.LSM24:
 145 0024 80E0      		ldi r24,lo8(0)
 146 0026 0895      		ret
 147               	.LVL14:
 148               	.L21:
 149               	.LBE100:
 150               	.LSM25:
 151 0028 81E0      		ldi r24,lo8(1)
 152               	.LSM26:
 153 002a 0895      		ret
 154               	.LFE128:
 156               		.section	.text.CDC_Host_ConfigurePipes,"ax",@progbits
 157               	.global	CDC_Host_ConfigurePipes
 159               	CDC_Host_ConfigurePipes:
 160               	.LFB125:
 161               	.LSM27:
 162               	.LVL15:
 163 0000 4F92      		push r4
 164 0002 5F92      		push r5
 165 0004 6F92      		push r6
 166 0006 7F92      		push r7
 167 0008 8F92      		push r8
 168 000a 9F92      		push r9
 169 000c AF92      		push r10
 170 000e BF92      		push r11
 171 0010 CF92      		push r12
 172 0012 DF92      		push r13
 173 0014 EF92      		push r14
 174 0016 FF92      		push r15
 175 0018 0F93      		push r16
 176 001a 1F93      		push r17
 177 001c DF93      		push r29
 178 001e CF93      		push r28
 179 0020 00D0      		rcall .
 180 0022 00D0      		rcall .
 181 0024 CDB7      		in r28,__SP_L__
 182 0026 DEB7      		in r29,__SP_H__
 183               	/* prologue: function */
 184               	/* frame size = 4 */
 185               	/* stack size = 20 */
 186               	.L__stack_usage = 20
 187 0028 6C01      		movw r12,r24
 188 002a 7A83      		std Y+2,r23
 189 002c 6983      		std Y+1,r22
 190 002e 5C83      		std Y+4,r21
 191 0030 4B83      		std Y+3,r20
 192               	.LVL16:
 193               	.LSM28:
 194 0032 0696      		adiw r24,6
 195               	.LVL17:
 196 0034 FC01      		movw r30,r24
 197 0036 81E1      		ldi r24,lo8(17)
 198 0038 DF01      		movw r26,r30
 199 003a 1D92      		st X+,__zero_reg__
 200 003c 8A95      	        dec r24
 201 003e 01F4      		brne .-6
 202               	.LSM29:
 203 0040 EB81      		ldd r30,Y+3
 204 0042 FC81      		ldd r31,Y+4
 205 0044 8181      		ldd r24,Z+1
 206 0046 8230      		cpi r24,lo8(2)
 207 0048 01F0      		breq .L101
 208               	.LSM30:
 209 004a 81E0      		ldi r24,lo8(1)
 210               	.LVL18:
 211               	.L24:
 212               	/* epilogue start */
 213               	.LSM31:
 214 004c 0F90      		pop __tmp_reg__
 215 004e 0F90      		pop __tmp_reg__
 216 0050 0F90      		pop __tmp_reg__
 217 0052 0F90      		pop __tmp_reg__
 218 0054 CF91      		pop r28
 219 0056 DF91      		pop r29
 220 0058 1F91      		pop r17
 221 005a 0F91      		pop r16
 222 005c FF90      		pop r15
 223 005e EF90      		pop r14
 224 0060 DF90      		pop r13
 225 0062 CF90      		pop r12
 226               	.LVL19:
 227 0064 BF90      		pop r11
 228 0066 AF90      		pop r10
 229 0068 9F90      		pop r9
 230 006a 8F90      		pop r8
 231 006c 7F90      		pop r7
 232 006e 6F90      		pop r6
 233 0070 5F90      		pop r5
 234 0072 4F90      		pop r4
 235 0074 0895      		ret
 236               	.LVL20:
 237               	.L101:
 238               	.LSM32:
 239 0076 6624      		clr r6
 240 0078 7724      		clr r7
 241 007a 8824      		clr r8
 242 007c 9924      		clr r9
 243 007e AA24      		clr r10
 244 0080 BB24      		clr r11
 245 0082 4424      		clr r4
 246 0084 5524      		clr r5
 247 0086 F3E0      		ldi r31,lo8(3)
 248 0088 EF2E      		mov r14,r31
 249 008a F12C      		mov r15,__zero_reg__
 250 008c EC0E      		add r14,r28
 251 008e FD1E      		adc r15,r29
 252 0090 8E01      		movw r16,r28
 253 0092 0F5F      		subi r16,lo8(-(1))
 254 0094 1F4F      		sbci r17,hi8(-(1))
 255               	.LVL21:
 256               	.L90:
 257               	.LBB101:
 258               	.LSM33:
 259 0096 6114      		cp r6,__zero_reg__
 260 0098 7104      		cpc r7,__zero_reg__
 261 009a 01F4      		brne .+2
 262 009c 00C0      		rjmp .L26
 263               	.LSM34:
 264 009e C801      		movw r24,r16
 265 00a0 B701      		movw r22,r14
 266               	.LVL22:
 267 00a2 40E0      		ldi r20,lo8(gs(DCOMP_CDC_Host_NextCDCInterfaceEndpoint))
 268 00a4 50E0      		ldi r21,hi8(gs(DCOMP_CDC_Host_NextCDCInterfaceEndpoint))
 269               	.LVL23:
 270 00a6 0E94 0000 		call USB_GetNextDescriptorComp
 271               	.LSM35:
 272 00aa 8823      		tst r24
 273 00ac 01F0      		breq .+2
 274 00ae 00C0      		rjmp .L26
 275               	.LSM36:
 276 00b0 EB81      		ldd r30,Y+3
 277 00b2 FC81      		ldd r31,Y+4
 278               	.LVL24:
 279               	.LSM37:
 280 00b4 8281      		ldd r24,Z+2
 281 00b6 87FD      		sbrc r24,7
 282 00b8 00C0      		rjmp .L102
 283               	.LSM38:
 284 00ba 5F01      		movw r10,r30
 285               	.LVL25:
 286               	.L30:
 287               	.LBE101:
 288               	.LSM39:
 289 00bc 4114      		cp r4,__zero_reg__
 290 00be 5104      		cpc r5,__zero_reg__
 291 00c0 01F0      		breq .L90
 292               	.LSM40:
 293 00c2 A114      		cp r10,__zero_reg__
 294 00c4 B104      		cpc r11,__zero_reg__
 295 00c6 01F0      		breq .L90
 296               	.LSM41:
 297 00c8 8114      		cp r8,__zero_reg__
 298 00ca 9104      		cpc r9,__zero_reg__
 299 00cc 01F0      		breq .L90
 300               	.LVL26:
 301               	.LBB102:
 302               	.LBB103:
 303               	.LSM42:
 304 00ce F601      		movw r30,r12
 305 00d0 8081      		ld r24,Z
 306 00d2 8130      		cpi r24,lo8(1)
 307 00d4 01F4      		brne .+2
 308 00d6 00C0      		rjmp .L103
 309               	.LSM43:
 310 00d8 D601      		movw r26,r12
 311 00da 1296      		adiw r26,2
 312 00dc 9C91      		ld r25,X
 313 00de 1297      		sbiw r26,2
 314 00e0 9130      		cpi r25,lo8(1)
 315 00e2 01F4      		brne .+2
 316 00e4 00C0      		rjmp .L35
 317               	.LSM44:
 318 00e6 1496      		adiw r26,4
 319 00e8 9C91      		ld r25,X
 320 00ea 1497      		sbiw r26,4
 321 00ec 9130      		cpi r25,lo8(1)
 322 00ee 01F4      		brne .+2
 323 00f0 00C0      		rjmp .L104
 324               	.L34:
 325               	.LVL27:
 326               	.LSM45:
 327 00f2 8230      		cpi r24,lo8(2)
 328 00f4 01F4      		brne .+2
 329 00f6 00C0      		rjmp .L105
 330               	.LSM46:
 331 00f8 D601      		movw r26,r12
 332 00fa 1296      		adiw r26,2
 333 00fc 9C91      		ld r25,X
 334 00fe 1297      		sbiw r26,2
 335 0100 9230      		cpi r25,lo8(2)
 336 0102 01F4      		brne .+2
 337 0104 00C0      		rjmp .L41
 338               	.LSM47:
 339 0106 1496      		adiw r26,4
 340 0108 9C91      		ld r25,X
 341 010a 1497      		sbiw r26,4
 342 010c 9230      		cpi r25,lo8(2)
 343 010e 01F4      		brne .+2
 344 0110 00C0      		rjmp .L106
 345               	.L40:
 346               	.LVL28:
 347               	.LSM48:
 348 0112 8330      		cpi r24,lo8(3)
 349 0114 01F4      		brne .+2
 350 0116 00C0      		rjmp .L107
 351               	.LSM49:
 352 0118 D601      		movw r26,r12
 353 011a 1296      		adiw r26,2
 354 011c 9C91      		ld r25,X
 355 011e 1297      		sbiw r26,2
 356 0120 9330      		cpi r25,lo8(3)
 357 0122 01F4      		brne .+2
 358 0124 00C0      		rjmp .L47
 359               	.LSM50:
 360 0126 1496      		adiw r26,4
 361 0128 9C91      		ld r25,X
 362 012a 1497      		sbiw r26,4
 363 012c 9330      		cpi r25,lo8(3)
 364 012e 01F4      		brne .+2
 365 0130 00C0      		rjmp .L108
 366               	.L46:
 367               	.LVL29:
 368               	.LSM51:
 369 0132 8430      		cpi r24,lo8(4)
 370 0134 01F4      		brne .+2
 371 0136 00C0      		rjmp .L109
 372               	.LSM52:
 373 0138 D601      		movw r26,r12
 374 013a 1296      		adiw r26,2
 375 013c 9C91      		ld r25,X
 376 013e 1297      		sbiw r26,2
 377 0140 9430      		cpi r25,lo8(4)
 378 0142 01F4      		brne .+2
 379 0144 00C0      		rjmp .L53
 380               	.LSM53:
 381 0146 1496      		adiw r26,4
 382 0148 9C91      		ld r25,X
 383 014a 1497      		sbiw r26,4
 384 014c 9430      		cpi r25,lo8(4)
 385 014e 01F4      		brne .+2
 386 0150 00C0      		rjmp .L110
 387               	.L52:
 388               	.LVL30:
 389               	.LSM54:
 390 0152 8530      		cpi r24,lo8(5)
 391 0154 01F4      		brne .+2
 392 0156 00C0      		rjmp .L111
 393               	.LSM55:
 394 0158 D601      		movw r26,r12
 395 015a 1296      		adiw r26,2
 396 015c 9C91      		ld r25,X
 397 015e 1297      		sbiw r26,2
 398 0160 9530      		cpi r25,lo8(5)
 399 0162 01F4      		brne .+2
 400 0164 00C0      		rjmp .L59
 401               	.LSM56:
 402 0166 1496      		adiw r26,4
 403 0168 9C91      		ld r25,X
 404 016a 1497      		sbiw r26,4
 405 016c 9530      		cpi r25,lo8(5)
 406 016e 01F4      		brne .+2
 407 0170 00C0      		rjmp .L112
 408               	.L58:
 409               	.LVL31:
 410               	.LSM57:
 411 0172 8630      		cpi r24,lo8(6)
 412 0174 01F4      		brne .+2
 413 0176 00C0      		rjmp .L113
 414               	.LSM58:
 415 0178 D601      		movw r26,r12
 416 017a 1296      		adiw r26,2
 417 017c 8C91      		ld r24,X
 418 017e 1297      		sbiw r26,2
 419 0180 8630      		cpi r24,lo8(6)
 420 0182 01F4      		brne .+2
 421 0184 00C0      		rjmp .L114
 422               	.LSM59:
 423 0186 D601      		movw r26,r12
 424 0188 1496      		adiw r26,4
 425 018a 8C91      		ld r24,X
 426 018c 1497      		sbiw r26,4
 427 018e 8630      		cpi r24,lo8(6)
 428 0190 01F4      		brne .+2
 429 0192 00C0      		rjmp .L115
 430               	.L64:
 431               	.LVL32:
 432               	.LBE103:
 433               	.LBE102:
 434               	.LSM60:
 435 0194 D301      		movw r26,r6
 436 0196 1296      		adiw r26,2
 437 0198 8C91      		ld r24,X
 438 019a 1297      		sbiw r26,2
 439 019c F601      		movw r30,r12
 440 019e 8783      		std Z+7,r24
 441               	.LSM61:
 442 01a0 83E0      		ldi r24,lo8(3)
 443 01a2 8687      		std Z+14,r24
 444               	.LSM62:
 445 01a4 8787      		std Z+15,r24
 446               	.LSM63:
 447 01a6 81E0      		ldi r24,lo8(1)
 448 01a8 8683      		std Z+6,r24
 449               	.LSM64:
 450 01aa 80E0      		ldi r24,lo8(0)
 451 01ac 00C0      		rjmp .L24
 452               	.LVL33:
 453               	.L26:
 454               	.LBB113:
 455               	.LSM65:
 456 01ae 8114      		cp r8,__zero_reg__
 457 01b0 9104      		cpc r9,__zero_reg__
 458 01b2 01F0      		breq .L28
 459               	.LSM66:
 460 01b4 C801      		movw r24,r16
 461 01b6 B701      		movw r22,r14
 462 01b8 40E0      		ldi r20,lo8(gs(DCOMP_CDC_Host_NextCDCDataInterface))
 463 01ba 50E0      		ldi r21,hi8(gs(DCOMP_CDC_Host_NextCDCDataInterface))
 464 01bc 0E94 0000 		call USB_GetNextDescriptorComp
 465 01c0 8823      		tst r24
 466 01c2 01F4      		brne .L68
 467               	.LSM67:
 468 01c4 AA24      		clr r10
 469 01c6 BB24      		clr r11
 470               	.LSM68:
 471 01c8 4424      		clr r4
 472 01ca 5524      		clr r5
 473 01cc 00C0      		rjmp .L90
 474               	.L68:
 475               	.LSM69:
 476 01ce 82E0      		ldi r24,lo8(2)
 477 01d0 00C0      		rjmp .L24
 478               	.L28:
 479               	.LSM70:
 480 01d2 C801      		movw r24,r16
 481 01d4 B701      		movw r22,r14
 482 01d6 40E0      		ldi r20,lo8(gs(DCOMP_CDC_Host_NextCDCControlInterface))
 483 01d8 50E0      		ldi r21,hi8(gs(DCOMP_CDC_Host_NextCDCControlInterface))
 484 01da 0E94 0000 		call USB_GetNextDescriptorComp
 485 01de 8823      		tst r24
 486 01e0 01F4      		brne .L68
 487               	.LSM71:
 488 01e2 6B80      		ldd r6,Y+3
 489 01e4 7C80      		ldd r7,Y+4
 490               	.LVL34:
 491 01e6 00C0      		rjmp .L30
 492               	.LVL35:
 493               	.L102:
 494               	.LSM72:
 495 01e8 8381      		ldd r24,Z+3
 496 01ea 8370      		andi r24,lo8(3)
 497 01ec 8330      		cpi r24,lo8(3)
 498 01ee 01F0      		breq .L116
 499               	.LSM73:
 500 01f0 2F01      		movw r4,r30
 501 01f2 00C0      		rjmp .L30
 502               	.L116:
 503               	.LSM74:
 504 01f4 4F01      		movw r8,r30
 505 01f6 00C0      		rjmp .L30
 506               	.LVL36:
 507               	.L103:
 508               	.LBE113:
 509               	.LBB114:
 510               	.LBB112:
 511               	.LSM75:
 512 01f8 D201      		movw r26,r4
 513 01fa 1496      		adiw r26,4
 514 01fc 0D91      		ld r16,X+
 515 01fe 1C91      		ld r17,X
 516 0200 1597      		sbiw r26,4+1
 517               	.LVL37:
 518               	.LSM76:
 519 0202 1296      		adiw r26,2
 520 0204 2C91      		ld r18,X
 521 0206 1297      		sbiw r26,2
 522               	.LVL38:
 523               	.LSM77:
 524 0208 F601      		movw r30,r12
 525 020a 8181      		ldd r24,Z+1
 526               	.LVL39:
 527               	.LSM78:
 528 020c 1187      		std Z+9,r17
 529 020e 0087      		std Z+8,r16
 530               	.LSM79:
 531 0210 FF24      		clr r15
 532               	.LSM80:
 533 0212 40E1      		ldi r20,lo8(16)
 534               	.LSM81:
 535 0214 62E0      		ldi r22,lo8(2)
 536               	.LVL40:
 537               	.L36:
 538               	.LSM82:
 539 0216 8823      		tst r24
 540 0218 01F0      		breq .L71
 541 021a E4E0      		ldi r30,lo8(4)
 542 021c EE2E      		mov r14,r30
 543               	.L33:
 544 021e 81E0      		ldi r24,lo8(1)
 545               	.LVL41:
 546 0220 0E94 0000 		call Pipe_ConfigurePipe
 547               	.LVL42:
 548 0224 8823      		tst r24
 549 0226 01F4      		brne .+2
 550 0228 00C0      		rjmp .L82
 551               	.LSM83:
 552 022a FF20      		tst r15
 553 022c 01F0      		breq .+2
 554 022e 00C0      		rjmp .L92
 555 0230 D601      		movw r26,r12
 556 0232 8C91      		ld r24,X
 557 0234 00C0      		rjmp .L34
 558               	.LVL43:
 559               	.L105:
 560               	.LSM84:
 561 0236 D201      		movw r26,r4
 562 0238 1496      		adiw r26,4
 563 023a 0D91      		ld r16,X+
 564 023c 1C91      		ld r17,X
 565 023e 1597      		sbiw r26,4+1
 566               	.LVL44:
 567               	.LSM85:
 568 0240 1296      		adiw r26,2
 569 0242 2C91      		ld r18,X
 570 0244 1297      		sbiw r26,2
 571               	.LVL45:
 572               	.LSM86:
 573 0246 F601      		movw r30,r12
 574 0248 8181      		ldd r24,Z+1
 575               	.LVL46:
 576               	.LSM87:
 577 024a 1187      		std Z+9,r17
 578 024c 0087      		std Z+8,r16
 579               	.LSM88:
 580 024e FF24      		clr r15
 581               	.LSM89:
 582 0250 40E1      		ldi r20,lo8(16)
 583               	.LSM90:
 584 0252 62E0      		ldi r22,lo8(2)
 585               	.LVL47:
 586               	.L42:
 587               	.LSM91:
 588 0254 8823      		tst r24
 589 0256 01F0      		breq .L73
 590 0258 74E0      		ldi r23,lo8(4)
 591 025a E72E      		mov r14,r23
 592               	.L39:
 593 025c 82E0      		ldi r24,lo8(2)
 594               	.LVL48:
 595 025e 0E94 0000 		call Pipe_ConfigurePipe
 596               	.LVL49:
 597 0262 8823      		tst r24
 598 0264 01F4      		brne .+2
 599 0266 00C0      		rjmp .L82
 600               	.LSM92:
 601 0268 FF20      		tst r15
 602 026a 01F0      		breq .+2
 603 026c 00C0      		rjmp .L94
 604 026e D601      		movw r26,r12
 605 0270 8C91      		ld r24,X
 606 0272 00C0      		rjmp .L40
 607               	.LVL50:
 608               	.L71:
 609               	.LSM93:
 610 0274 EE24      		clr r14
 611 0276 00C0      		rjmp .L33
 612               	.LVL51:
 613               	.L107:
 614               	.LSM94:
 615 0278 D201      		movw r26,r4
 616 027a 1496      		adiw r26,4
 617 027c 0D91      		ld r16,X+
 618 027e 1C91      		ld r17,X
 619 0280 1597      		sbiw r26,4+1
 620               	.LVL52:
 621               	.LSM95:
 622 0282 1296      		adiw r26,2
 623 0284 2C91      		ld r18,X
 624 0286 1297      		sbiw r26,2
 625               	.LVL53:
 626               	.LSM96:
 627 0288 F601      		movw r30,r12
 628 028a 8181      		ldd r24,Z+1
 629               	.LVL54:
 630               	.LSM97:
 631 028c 1187      		std Z+9,r17
 632 028e 0087      		std Z+8,r16
 633               	.LSM98:
 634 0290 FF24      		clr r15
 635               	.LSM99:
 636 0292 40E1      		ldi r20,lo8(16)
 637               	.LSM100:
 638 0294 62E0      		ldi r22,lo8(2)
 639               	.LVL55:
 640               	.L48:
 641               	.LSM101:
 642 0296 8823      		tst r24
 643 0298 01F4      		brne .+2
 644 029a 00C0      		rjmp .L75
 645 029c 54E0      		ldi r21,lo8(4)
 646 029e E52E      		mov r14,r21
 647               	.L45:
 648 02a0 83E0      		ldi r24,lo8(3)
 649               	.LVL56:
 650 02a2 0E94 0000 		call Pipe_ConfigurePipe
 651               	.LVL57:
 652 02a6 8823      		tst r24
 653 02a8 01F4      		brne .+2
 654 02aa 00C0      		rjmp .L82
 655               	.LSM102:
 656 02ac FF20      		tst r15
 657 02ae 01F0      		breq .+2
 658 02b0 00C0      		rjmp .L96
 659 02b2 D601      		movw r26,r12
 660 02b4 8C91      		ld r24,X
 661 02b6 00C0      		rjmp .L46
 662               	.LVL58:
 663               	.L73:
 664               	.LSM103:
 665 02b8 EE24      		clr r14
 666 02ba 00C0      		rjmp .L39
 667               	.LVL59:
 668               	.L109:
 669               	.LSM104:
 670 02bc D201      		movw r26,r4
 671 02be 1496      		adiw r26,4
 672 02c0 0D91      		ld r16,X+
 673 02c2 1C91      		ld r17,X
 674 02c4 1597      		sbiw r26,4+1
 675               	.LVL60:
 676               	.LSM105:
 677 02c6 1296      		adiw r26,2
 678 02c8 2C91      		ld r18,X
 679 02ca 1297      		sbiw r26,2
 680               	.LVL61:
 681               	.LSM106:
 682 02cc F601      		movw r30,r12
 683 02ce 8181      		ldd r24,Z+1
 684               	.LVL62:
 685               	.LSM107:
 686 02d0 1187      		std Z+9,r17
 687 02d2 0087      		std Z+8,r16
 688               	.LSM108:
 689 02d4 FF24      		clr r15
 690               	.LSM109:
 691 02d6 40E1      		ldi r20,lo8(16)
 692               	.LSM110:
 693 02d8 62E0      		ldi r22,lo8(2)
 694               	.LVL63:
 695               	.L54:
 696               	.LSM111:
 697 02da 8823      		tst r24
 698 02dc 01F0      		breq .L77
 699 02de 34E0      		ldi r19,lo8(4)
 700 02e0 E32E      		mov r14,r19
 701               	.L51:
 702 02e2 84E0      		ldi r24,lo8(4)
 703               	.LVL64:
 704 02e4 0E94 0000 		call Pipe_ConfigurePipe
 705               	.LVL65:
 706 02e8 8823      		tst r24
 707 02ea 01F4      		brne .+2
 708 02ec 00C0      		rjmp .L82
 709               	.LSM112:
 710 02ee FF20      		tst r15
 711 02f0 01F0      		breq .+2
 712 02f2 00C0      		rjmp .L98
 713 02f4 D601      		movw r26,r12
 714 02f6 8C91      		ld r24,X
 715 02f8 00C0      		rjmp .L52
 716               	.LVL66:
 717               	.L92:
 718               	.LBB104:
 719               	.LBB106:
 720               	.LSM113:
 721 02fa F092 AD00 		sts 173,r15
 722 02fe F601      		movw r30,r12
 723 0300 8081      		ld r24,Z
 724 0302 00C0      		rjmp .L34
 725               	.LVL67:
 726               	.L94:
 727 0304 F092 AD00 		sts 173,r15
 728 0308 F601      		movw r30,r12
 729 030a 8081      		ld r24,Z
 730 030c 00C0      		rjmp .L40
 731               	.LVL68:
 732               	.L111:
 733               	.LBE106:
 734               	.LBE104:
 735               	.LSM114:
 736 030e D201      		movw r26,r4
 737 0310 1496      		adiw r26,4
 738 0312 0D91      		ld r16,X+
 739 0314 1C91      		ld r17,X
 740 0316 1597      		sbiw r26,4+1
 741               	.LVL69:
 742               	.LSM115:
 743 0318 1296      		adiw r26,2
 744 031a 2C91      		ld r18,X
 745 031c 1297      		sbiw r26,2
 746               	.LVL70:
 747               	.LSM116:
 748 031e F601      		movw r30,r12
 749 0320 8181      		ldd r24,Z+1
 750               	.LVL71:
 751               	.LSM117:
 752 0322 1187      		std Z+9,r17
 753 0324 0087      		std Z+8,r16
 754               	.LSM118:
 755 0326 FF24      		clr r15
 756               	.LSM119:
 757 0328 40E1      		ldi r20,lo8(16)
 758               	.LSM120:
 759 032a 62E0      		ldi r22,lo8(2)
 760               	.LVL72:
 761               	.L60:
 762               	.LSM121:
 763 032c 8823      		tst r24
 764 032e 01F0      		breq .L79
 765 0330 94E0      		ldi r25,lo8(4)
 766 0332 E92E      		mov r14,r25
 767               	.L57:
 768 0334 85E0      		ldi r24,lo8(5)
 769               	.LVL73:
 770 0336 0E94 0000 		call Pipe_ConfigurePipe
 771               	.LVL74:
 772 033a 8823      		tst r24
 773 033c 01F4      		brne .+2
 774 033e 00C0      		rjmp .L82
 775               	.LSM122:
 776 0340 FF20      		tst r15
 777 0342 01F4      		brne .L100
 778 0344 D601      		movw r26,r12
 779 0346 8C91      		ld r24,X
 780 0348 00C0      		rjmp .L58
 781               	.LVL75:
 782               	.L75:
 783               	.LSM123:
 784 034a EE24      		clr r14
 785 034c 00C0      		rjmp .L45
 786               	.LVL76:
 787               	.L77:
 788 034e EE24      		clr r14
 789 0350 00C0      		rjmp .L51
 790               	.LVL77:
 791               	.L96:
 792               	.LBB109:
 793               	.LBB107:
 794               	.LSM124:
 795 0352 F092 AD00 		sts 173,r15
 796 0356 F601      		movw r30,r12
 797 0358 8081      		ld r24,Z
 798 035a 00C0      		rjmp .L46
 799               	.LVL78:
 800               	.L113:
 801               	.LBE107:
 802               	.LBE109:
 803               	.LSM125:
 804 035c D201      		movw r26,r4
 805 035e 1496      		adiw r26,4
 806 0360 0D91      		ld r16,X+
 807 0362 1C91      		ld r17,X
 808 0364 1597      		sbiw r26,4+1
 809               	.LVL79:
 810               	.LSM126:
 811 0366 1296      		adiw r26,2
 812 0368 2C91      		ld r18,X
 813 036a 1297      		sbiw r26,2
 814               	.LVL80:
 815               	.LSM127:
 816 036c F601      		movw r30,r12
 817 036e 8181      		ldd r24,Z+1
 818               	.LVL81:
 819               	.LSM128:
 820 0370 1187      		std Z+9,r17
 821 0372 0087      		std Z+8,r16
 822               	.LSM129:
 823 0374 FF24      		clr r15
 824               	.LSM130:
 825 0376 40E1      		ldi r20,lo8(16)
 826               	.LSM131:
 827 0378 62E0      		ldi r22,lo8(2)
 828               	.LVL82:
 829               	.L62:
 830               	.LSM132:
 831 037a 8823      		tst r24
 832 037c 01F0      		breq .L81
 833 037e 84E0      		ldi r24,lo8(4)
 834 0380 E82E      		mov r14,r24
 835               	.LVL83:
 836               	.L65:
 837               	.LSM133:
 838 0382 86E0      		ldi r24,lo8(6)
 839 0384 0E94 0000 		call Pipe_ConfigurePipe
 840               	.LVL84:
 841 0388 8823      		tst r24
 842 038a 01F4      		brne .+2
 843 038c 00C0      		rjmp .L82
 844               	.LSM134:
 845 038e FF20      		tst r15
 846 0390 01F4      		brne .+2
 847 0392 00C0      		rjmp .L64
 848               	.LVL85:
 849               	.LBB110:
 850               	.LBB105:
 851               	.LSM135:
 852 0394 F092 AD00 		sts 173,r15
 853 0398 00C0      		rjmp .L64
 854               	.LVL86:
 855               	.L79:
 856               	.LBE105:
 857               	.LBE110:
 858               	.LSM136:
 859 039a EE24      		clr r14
 860 039c 00C0      		rjmp .L57
 861               	.LVL87:
 862               	.L98:
 863               	.LBB111:
 864               	.LBB108:
 865               	.LSM137:
 866 039e F092 AD00 		sts 173,r15
 867 03a2 F601      		movw r30,r12
 868 03a4 8081      		ld r24,Z
 869 03a6 00C0      		rjmp .L52
 870               	.LVL88:
 871               	.L100:
 872 03a8 F092 AD00 		sts 173,r15
 873 03ac F601      		movw r30,r12
 874 03ae 8081      		ld r24,Z
 875 03b0 00C0      		rjmp .L58
 876               	.LVL89:
 877               	.L81:
 878               	.LBE108:
 879               	.LBE111:
 880               	.LSM138:
 881 03b2 EE24      		clr r14
 882 03b4 00C0      		rjmp .L65
 883               	.LVL90:
 884               	.L35:
 885               	.LSM139:
 886 03b6 D501      		movw r26,r10
 887 03b8 1496      		adiw r26,4
 888 03ba 0D91      		ld r16,X+
 889 03bc 1C91      		ld r17,X
 890 03be 1597      		sbiw r26,4+1
 891               	.LVL91:
 892               	.LSM140:
 893 03c0 1296      		adiw r26,2
 894 03c2 2C91      		ld r18,X
 895 03c4 1297      		sbiw r26,2
 896               	.LVL92:
 897               	.LSM141:
 898 03c6 F601      		movw r30,r12
 899 03c8 8381      		ldd r24,Z+3
 900               	.LVL93:
 901               	.LSM142:
 902 03ca 1387      		std Z+11,r17
 903 03cc 0287      		std Z+10,r16
 904               	.LSM143:
 905 03ce FF24      		clr r15
 906               	.LSM144:
 907 03d0 40E2      		ldi r20,lo8(32)
 908               	.LSM145:
 909 03d2 62E0      		ldi r22,lo8(2)
 910 03d4 00C0      		rjmp .L36
 911               	.LVL94:
 912               	.L41:
 913               	.LSM146:
 914 03d6 D501      		movw r26,r10
 915 03d8 1496      		adiw r26,4
 916 03da 0D91      		ld r16,X+
 917 03dc 1C91      		ld r17,X
 918 03de 1597      		sbiw r26,4+1
 919               	.LVL95:
 920               	.LSM147:
 921 03e0 1296      		adiw r26,2
 922 03e2 2C91      		ld r18,X
 923 03e4 1297      		sbiw r26,2
 924               	.LVL96:
 925               	.LSM148:
 926 03e6 F601      		movw r30,r12
 927 03e8 8381      		ldd r24,Z+3
 928               	.LVL97:
 929               	.LSM149:
 930 03ea 1387      		std Z+11,r17
 931 03ec 0287      		std Z+10,r16
 932               	.LSM150:
 933 03ee FF24      		clr r15
 934               	.LSM151:
 935 03f0 40E2      		ldi r20,lo8(32)
 936               	.LSM152:
 937 03f2 62E0      		ldi r22,lo8(2)
 938 03f4 00C0      		rjmp .L42
 939               	.LVL98:
 940               	.L47:
 941               	.LSM153:
 942 03f6 D501      		movw r26,r10
 943 03f8 1496      		adiw r26,4
 944 03fa 0D91      		ld r16,X+
 945 03fc 1C91      		ld r17,X
 946 03fe 1597      		sbiw r26,4+1
 947               	.LVL99:
 948               	.LSM154:
 949 0400 1296      		adiw r26,2
 950 0402 2C91      		ld r18,X
 951 0404 1297      		sbiw r26,2
 952               	.LVL100:
 953               	.LSM155:
 954 0406 F601      		movw r30,r12
 955 0408 8381      		ldd r24,Z+3
 956               	.LVL101:
 957               	.LSM156:
 958 040a 1387      		std Z+11,r17
 959 040c 0287      		std Z+10,r16
 960               	.LSM157:
 961 040e FF24      		clr r15
 962               	.LSM158:
 963 0410 40E2      		ldi r20,lo8(32)
 964               	.LSM159:
 965 0412 62E0      		ldi r22,lo8(2)
 966 0414 00C0      		rjmp .L48
 967               	.LVL102:
 968               	.L53:
 969               	.LSM160:
 970 0416 D501      		movw r26,r10
 971 0418 1496      		adiw r26,4
 972 041a 0D91      		ld r16,X+
 973 041c 1C91      		ld r17,X
 974 041e 1597      		sbiw r26,4+1
 975               	.LVL103:
 976               	.LSM161:
 977 0420 1296      		adiw r26,2
 978 0422 2C91      		ld r18,X
 979 0424 1297      		sbiw r26,2
 980               	.LVL104:
 981               	.LSM162:
 982 0426 F601      		movw r30,r12
 983 0428 8381      		ldd r24,Z+3
 984               	.LVL105:
 985               	.LSM163:
 986 042a 1387      		std Z+11,r17
 987 042c 0287      		std Z+10,r16
 988               	.LSM164:
 989 042e FF24      		clr r15
 990               	.LSM165:
 991 0430 40E2      		ldi r20,lo8(32)
 992               	.LSM166:
 993 0432 62E0      		ldi r22,lo8(2)
 994 0434 00C0      		rjmp .L54
 995               	.LVL106:
 996               	.L59:
 997               	.LSM167:
 998 0436 D501      		movw r26,r10
 999 0438 1496      		adiw r26,4
 1000 043a 0D91      		ld r16,X+
 1001 043c 1C91      		ld r17,X
 1002 043e 1597      		sbiw r26,4+1
 1003               	.LVL107:
 1004               	.LSM168:
 1005 0440 1296      		adiw r26,2
 1006 0442 2C91      		ld r18,X
 1007 0444 1297      		sbiw r26,2
 1008               	.LVL108:
 1009               	.LSM169:
 1010 0446 F601      		movw r30,r12
 1011 0448 8381      		ldd r24,Z+3
 1012               	.LVL109:
 1013               	.LSM170:
 1014 044a 1387      		std Z+11,r17
 1015 044c 0287      		std Z+10,r16
 1016               	.LSM171:
 1017 044e FF24      		clr r15
 1018               	.LSM172:
 1019 0450 40E2      		ldi r20,lo8(32)
 1020               	.LSM173:
 1021 0452 62E0      		ldi r22,lo8(2)
 1022 0454 00C0      		rjmp .L60
 1023               	.LVL110:
 1024               	.L82:
 1025               	.LSM174:
 1026 0456 83E0      		ldi r24,lo8(3)
 1027 0458 00C0      		rjmp .L24
 1028               	.LVL111:
 1029               	.L114:
 1030               	.LSM175:
 1031 045a F501      		movw r30,r10
 1032 045c 0481      		ldd r16,Z+4
 1033 045e 1581      		ldd r17,Z+5
 1034               	.LVL112:
 1035               	.LSM176:
 1036 0460 2281      		ldd r18,Z+2
 1037               	.LVL113:
 1038               	.LSM177:
 1039 0462 1396      		adiw r26,3
 1040 0464 8C91      		ld r24,X
 1041 0466 1397      		sbiw r26,3
 1042               	.LVL114:
 1043               	.LSM178:
 1044 0468 1B96      		adiw r26,10+1
 1045 046a 1C93      		st X,r17
 1046 046c 0E93      		st -X,r16
 1047 046e 1A97      		sbiw r26,10
 1048               	.LSM179:
 1049 0470 FF24      		clr r15
 1050               	.LSM180:
 1051 0472 40E2      		ldi r20,lo8(32)
 1052               	.LSM181:
 1053 0474 62E0      		ldi r22,lo8(2)
 1054 0476 00C0      		rjmp .L62
 1055               	.LVL115:
 1056               	.L104:
 1057               	.LSM182:
 1058 0478 F401      		movw r30,r8
 1059 047a 0481      		ldd r16,Z+4
 1060 047c 1581      		ldd r17,Z+5
 1061               	.LVL116:
 1062               	.LSM183:
 1063 047e 2281      		ldd r18,Z+2
 1064               	.LVL117:
 1065               	.LSM184:
 1066 0480 1596      		adiw r26,5
 1067 0482 8C91      		ld r24,X
 1068 0484 1597      		sbiw r26,5
 1069               	.LVL118:
 1070               	.LSM185:
 1071 0486 F680      		ldd r15,Z+6
 1072               	.LVL119:
 1073               	.LSM186:
 1074 0488 1D96      		adiw r26,12+1
 1075 048a 1C93      		st X,r17
 1076 048c 0E93      		st -X,r16
 1077 048e 1C97      		sbiw r26,12
 1078               	.LSM187:
 1079 0490 40E1      		ldi r20,lo8(16)
 1080               	.LSM188:
 1081 0492 63E0      		ldi r22,lo8(3)
 1082 0494 00C0      		rjmp .L36
 1083               	.LVL120:
 1084               	.L106:
 1085               	.LSM189:
 1086 0496 F401      		movw r30,r8
 1087 0498 0481      		ldd r16,Z+4
 1088 049a 1581      		ldd r17,Z+5
 1089               	.LVL121:
 1090               	.LSM190:
 1091 049c 2281      		ldd r18,Z+2
 1092               	.LVL122:
 1093               	.LSM191:
 1094 049e 1596      		adiw r26,5
 1095 04a0 8C91      		ld r24,X
 1096 04a2 1597      		sbiw r26,5
 1097               	.LVL123:
 1098               	.LSM192:
 1099 04a4 F680      		ldd r15,Z+6
 1100               	.LVL124:
 1101               	.LSM193:
 1102 04a6 1D96      		adiw r26,12+1
 1103 04a8 1C93      		st X,r17
 1104 04aa 0E93      		st -X,r16
 1105 04ac 1C97      		sbiw r26,12
 1106               	.LSM194:
 1107 04ae 40E1      		ldi r20,lo8(16)
 1108               	.LSM195:
 1109 04b0 63E0      		ldi r22,lo8(3)
 1110 04b2 00C0      		rjmp .L42
 1111               	.LVL125:
 1112               	.L108:
 1113               	.LSM196:
 1114 04b4 F401      		movw r30,r8
 1115 04b6 0481      		ldd r16,Z+4
 1116 04b8 1581      		ldd r17,Z+5
 1117               	.LVL126:
 1118               	.LSM197:
 1119 04ba 2281      		ldd r18,Z+2
 1120               	.LVL127:
 1121               	.LSM198:
 1122 04bc 1596      		adiw r26,5
 1123 04be 8C91      		ld r24,X
 1124 04c0 1597      		sbiw r26,5
 1125               	.LVL128:
 1126               	.LSM199:
 1127 04c2 F680      		ldd r15,Z+6
 1128               	.LVL129:
 1129               	.LSM200:
 1130 04c4 1D96      		adiw r26,12+1
 1131 04c6 1C93      		st X,r17
 1132 04c8 0E93      		st -X,r16
 1133 04ca 1C97      		sbiw r26,12
 1134               	.LSM201:
 1135 04cc 40E1      		ldi r20,lo8(16)
 1136               	.LSM202:
 1137 04ce 63E0      		ldi r22,lo8(3)
 1138 04d0 00C0      		rjmp .L48
 1139               	.LVL130:
 1140               	.L110:
 1141               	.LSM203:
 1142 04d2 F401      		movw r30,r8
 1143 04d4 0481      		ldd r16,Z+4
 1144 04d6 1581      		ldd r17,Z+5
 1145               	.LVL131:
 1146               	.LSM204:
 1147 04d8 2281      		ldd r18,Z+2
 1148               	.LVL132:
 1149               	.LSM205:
 1150 04da 1596      		adiw r26,5
 1151 04dc 8C91      		ld r24,X
 1152 04de 1597      		sbiw r26,5
 1153               	.LVL133:
 1154               	.LSM206:
 1155 04e0 F680      		ldd r15,Z+6
 1156               	.LVL134:
 1157               	.LSM207:
 1158 04e2 1D96      		adiw r26,12+1
 1159 04e4 1C93      		st X,r17
 1160 04e6 0E93      		st -X,r16
 1161 04e8 1C97      		sbiw r26,12
 1162               	.LSM208:
 1163 04ea 40E1      		ldi r20,lo8(16)
 1164               	.LSM209:
 1165 04ec 63E0      		ldi r22,lo8(3)
 1166 04ee 00C0      		rjmp .L54
 1167               	.LVL135:
 1168               	.L112:
 1169               	.LSM210:
 1170 04f0 F401      		movw r30,r8
 1171 04f2 0481      		ldd r16,Z+4
 1172 04f4 1581      		ldd r17,Z+5
 1173               	.LVL136:
 1174               	.LSM211:
 1175 04f6 2281      		ldd r18,Z+2
 1176               	.LVL137:
 1177               	.LSM212:
 1178 04f8 1596      		adiw r26,5
 1179 04fa 8C91      		ld r24,X
 1180 04fc 1597      		sbiw r26,5
 1181               	.LVL138:
 1182               	.LSM213:
 1183 04fe F680      		ldd r15,Z+6
 1184               	.LVL139:
 1185               	.LSM214:
 1186 0500 1D96      		adiw r26,12+1
 1187 0502 1C93      		st X,r17
 1188 0504 0E93      		st -X,r16
 1189 0506 1C97      		sbiw r26,12
 1190               	.LSM215:
 1191 0508 40E1      		ldi r20,lo8(16)
 1192               	.LSM216:
 1193 050a 63E0      		ldi r22,lo8(3)
 1194 050c 00C0      		rjmp .L60
 1195               	.LVL140:
 1196               	.L115:
 1197               	.LSM217:
 1198 050e F401      		movw r30,r8
 1199 0510 0481      		ldd r16,Z+4
 1200 0512 1581      		ldd r17,Z+5
 1201               	.LVL141:
 1202               	.LSM218:
 1203 0514 2281      		ldd r18,Z+2
 1204               	.LVL142:
 1205               	.LSM219:
 1206 0516 1596      		adiw r26,5
 1207 0518 8C91      		ld r24,X
 1208 051a 1597      		sbiw r26,5
 1209               	.LVL143:
 1210               	.LSM220:
 1211 051c F680      		ldd r15,Z+6
 1212               	.LVL144:
 1213               	.LSM221:
 1214 051e 1D96      		adiw r26,12+1
 1215 0520 1C93      		st X,r17
 1216 0522 0E93      		st -X,r16
 1217 0524 1C97      		sbiw r26,12
 1218               	.LSM222:
 1219 0526 40E1      		ldi r20,lo8(16)
 1220               	.LSM223:
 1221 0528 63E0      		ldi r22,lo8(3)
 1222 052a 00C0      		rjmp .L62
 1223               	.LBE112:
 1224               	.LBE114:
 1225               	.LFE125:
 1227               		.section	.text.CDC_Host_SetLineEncoding,"ax",@progbits
 1228               	.global	CDC_Host_SetLineEncoding
 1230               	CDC_Host_SetLineEncoding:
 1231               	.LFB130:
 1232               	.LSM224:
 1233               	.LVL145:
 1234               	/* prologue: function */
 1235               	/* frame size = 0 */
 1236               	/* stack size = 0 */
 1237               	.L__stack_usage = 0
 1238               	.LSM225:
 1239 0000 FC01      		movw r30,r24
 1240 0002 2781      		ldd r18,Z+7
 1241 0004 31E2      		ldi r19,lo8(33)
 1242 0006 3093 0000 		sts USB_ControlRequest,r19
 1243 000a 30E2      		ldi r19,lo8(32)
 1244 000c 3093 0000 		sts USB_ControlRequest+1,r19
 1245 0010 1092 0000 		sts USB_ControlRequest+2+1,__zero_reg__
 1246 0014 1092 0000 		sts USB_ControlRequest+2,__zero_reg__
 1247 0018 2093 0000 		sts USB_ControlRequest+4,r18
 1248 001c 1092 0000 		sts USB_ControlRequest+5,__zero_reg__
 1249 0020 27E0      		ldi r18,lo8(7)
 1250 0022 30E0      		ldi r19,hi8(7)
 1251 0024 3093 0000 		sts USB_ControlRequest+6+1,r19
 1252 0028 2093 0000 		sts USB_ControlRequest+6,r18
 1253               	.LVL146:
 1254               	.LBB115:
 1255               	.LBB116:
 1256               	.LSM226:
 1257 002c 1092 A700 		sts 167,__zero_reg__
 1258               	.LBE116:
 1259               	.LBE115:
 1260               	.LSM227:
 1261 0030 4096      		adiw r24,16
 1262               	.LVL147:
 1263 0032 0E94 0000 		call USB_Host_SendControlRequest
 1264               	.LVL148:
 1265               	/* epilogue start */
 1266               	.LSM228:
 1267 0036 0895      		ret
 1268               	.LFE130:
 1270               		.section	.text.CDC_Host_SendControlLineStateChange,"ax",@progbits
 1271               	.global	CDC_Host_SendControlLineStateChange
 1273               	CDC_Host_SendControlLineStateChange:
 1274               	.LFB131:
 1275               	.LSM229:
 1276               	.LVL149:
 1277               	/* prologue: function */
 1278               	/* frame size = 0 */
 1279               	/* stack size = 0 */
 1280               	.L__stack_usage = 0
 1281 0000 FC01      		movw r30,r24
 1282               	.LSM230:
 1283 0002 9685      		ldd r25,Z+14
 1284 0004 8781      		ldd r24,Z+7
 1285               	.LVL150:
 1286 0006 E0E0      		ldi r30,lo8(USB_ControlRequest)
 1287 0008 F0E0      		ldi r31,hi8(USB_ControlRequest)
 1288               	.LVL151:
 1289 000a 21E2      		ldi r18,lo8(33)
 1290 000c 2093 0000 		sts USB_ControlRequest,r18
 1291 0010 22E2      		ldi r18,lo8(34)
 1292 0012 2093 0000 		sts USB_ControlRequest+1,r18
 1293 0016 9093 0000 		sts USB_ControlRequest+2,r25
 1294 001a 1382      		std Z+3,__zero_reg__
 1295 001c 8093 0000 		sts USB_ControlRequest+4,r24
 1296 0020 1582      		std Z+5,__zero_reg__
 1297 0022 1092 0000 		sts USB_ControlRequest+6+1,__zero_reg__
 1298 0026 1092 0000 		sts USB_ControlRequest+6,__zero_reg__
 1299               	.LVL152:
 1300               	.LBB117:
 1301               	.LBB118:
 1302               	.LSM231:
 1303 002a 1092 A700 		sts 167,__zero_reg__
 1304               	.LBE118:
 1305               	.LBE117:
 1306               	.LSM232:
 1307 002e 80E0      		ldi r24,lo8(0)
 1308 0030 90E0      		ldi r25,hi8(0)
 1309 0032 0E94 0000 		call USB_Host_SendControlRequest
 1310               	/* epilogue start */
 1311               	.LSM233:
 1312 0036 0895      		ret
 1313               	.LFE131:
 1315               		.section	.text.CDC_Host_SendBreak,"ax",@progbits
 1316               	.global	CDC_Host_SendBreak
 1318               	CDC_Host_SendBreak:
 1319               	.LFB132:
 1320               	.LSM234:
 1321               	.LVL153:
 1322               	/* prologue: function */
 1323               	/* frame size = 0 */
 1324               	/* stack size = 0 */
 1325               	.L__stack_usage = 0
 1326               	.LSM235:
 1327 0000 FC01      		movw r30,r24
 1328 0002 8781      		ldd r24,Z+7
 1329               	.LVL154:
 1330 0004 E0E0      		ldi r30,lo8(USB_ControlRequest)
 1331 0006 F0E0      		ldi r31,hi8(USB_ControlRequest)
 1332               	.LVL155:
 1333 0008 91E2      		ldi r25,lo8(33)
 1334 000a 9093 0000 		sts USB_ControlRequest,r25
 1335 000e 93E2      		ldi r25,lo8(35)
 1336 0010 9093 0000 		sts USB_ControlRequest+1,r25
 1337 0014 6093 0000 		sts USB_ControlRequest+2,r22
 1338 0018 1382      		std Z+3,__zero_reg__
 1339 001a 8093 0000 		sts USB_ControlRequest+4,r24
 1340 001e 1582      		std Z+5,__zero_reg__
 1341 0020 1092 0000 		sts USB_ControlRequest+6+1,__zero_reg__
 1342 0024 1092 0000 		sts USB_ControlRequest+6,__zero_reg__
 1343               	.LVL156:
 1344               	.LBB119:
 1345               	.LBB120:
 1346               	.LSM236:
 1347 0028 1092 A700 		sts 167,__zero_reg__
 1348               	.LBE120:
 1349               	.LBE119:
 1350               	.LSM237:
 1351 002c 80E0      		ldi r24,lo8(0)
 1352 002e 90E0      		ldi r25,hi8(0)
 1353 0030 0E94 0000 		call USB_Host_SendControlRequest
 1354               	.LVL157:
 1355               	/* epilogue start */
 1356               	.LSM238:
 1357 0034 0895      		ret
 1358               	.LFE132:
 1360               		.section	.text.CDC_Host_SendData,"ax",@progbits
 1361               	.global	CDC_Host_SendData
 1363               	CDC_Host_SendData:
 1364               	.LFB133:
 1365               	.LSM239:
 1366               	.LVL158:
 1367               	/* prologue: function */
 1368               	/* frame size = 0 */
 1369               	/* stack size = 0 */
 1370               	.L__stack_usage = 0
 1371               	.LSM240:
 1372 0000 2091 0000 		lds r18,USB_HostState
 1373 0004 2B30      		cpi r18,lo8(11)
 1374 0006 01F0      		breq .L124
 1375               	.LSM241:
 1376 0008 82E0      		ldi r24,lo8(2)
 1377               	.LVL159:
 1378 000a 0895      		ret
 1379               	.LVL160:
 1380               	.L124:
 1381               	.LSM242:
 1382 000c FC01      		movw r30,r24
 1383 000e 2681      		ldd r18,Z+6
 1384 0010 2223      		tst r18
 1385 0012 01F4      		brne .L125
 1386               	.LSM243:
 1387 0014 82E0      		ldi r24,lo8(2)
 1388               	.LVL161:
 1389               	.LSM244:
 1390 0016 0895      		ret
 1391               	.L125:
 1392               	.LSM245:
 1393 0018 8281      		ldd r24,Z+2
 1394               	.LVL162:
 1395               	.LBB121:
 1396               	.LBB122:
 1397               	.LSM246:
 1398 001a 8093 A700 		sts 167,r24
 1399               	.LBE122:
 1400               	.LBE121:
 1401               	.LBB123:
 1402               	.LBB124:
 1403               	.LSM247:
 1404 001e 8091 A900 		lds r24,169
 1405 0022 8F7B      		andi r24,lo8(-65)
 1406 0024 8093 A900 		sts 169,r24
 1407               	.LBE124:
 1408               	.LBE123:
 1409               	.LSM248:
 1410 0028 CB01      		movw r24,r22
 1411 002a BA01      		movw r22,r20
 1412               	.LVL163:
 1413 002c 40E0      		ldi r20,lo8(0)
 1414 002e 50E0      		ldi r21,hi8(0)
 1415               	.LVL164:
 1416 0030 0E94 0000 		call Pipe_Write_Stream_LE
 1417               	.LVL165:
 1418               	.LBB125:
 1419               	.LBB126:
 1420               	.LSM249:
 1421 0034 9091 A900 		lds r25,169
 1422 0038 9064      		ori r25,lo8(64)
 1423 003a 9093 A900 		sts 169,r25
 1424               	.LBE126:
 1425               	.LBE125:
 1426               	.LSM250:
 1427 003e 0895      		ret
 1428               	.LFE133:
 1430               		.section	.text.CDC_Host_SendString,"ax",@progbits
 1431               	.global	CDC_Host_SendString
 1433               	CDC_Host_SendString:
 1434               	.LFB134:
 1435               	.LSM251:
 1436               	.LVL166:
 1437               	/* prologue: function */
 1438               	/* frame size = 0 */
 1439               	/* stack size = 0 */
 1440               	.L__stack_usage = 0
 1441               	.LSM252:
 1442 0000 2091 0000 		lds r18,USB_HostState
 1443 0004 2B30      		cpi r18,lo8(11)
 1444 0006 01F0      		breq .L130
 1445               	.LSM253:
 1446 0008 82E0      		ldi r24,lo8(2)
 1447               	.LVL167:
 1448 000a 0895      		ret
 1449               	.LVL168:
 1450               	.L130:
 1451               	.LSM254:
 1452 000c FC01      		movw r30,r24
 1453 000e 2681      		ldd r18,Z+6
 1454 0010 2223      		tst r18
 1455 0012 01F4      		brne .L131
 1456               	.LSM255:
 1457 0014 82E0      		ldi r24,lo8(2)
 1458               	.LVL169:
 1459               	.LSM256:
 1460 0016 0895      		ret
 1461               	.L131:
 1462               	.LSM257:
 1463 0018 8281      		ldd r24,Z+2
 1464               	.LVL170:
 1465               	.LBB127:
 1466               	.LBB128:
 1467               	.LSM258:
 1468 001a 8093 A700 		sts 167,r24
 1469               	.LBE128:
 1470               	.LBE127:
 1471               	.LBB129:
 1472               	.LBB130:
 1473               	.LSM259:
 1474 001e 8091 A900 		lds r24,169
 1475 0022 8F7B      		andi r24,lo8(-65)
 1476 0024 8093 A900 		sts 169,r24
 1477               	.LBE130:
 1478               	.LBE129:
 1479               	.LSM260:
 1480 0028 FB01      		movw r30,r22
 1481               	.LVL171:
 1482 002a 0190      		ld __tmp_reg__,Z+
 1483 002c 0020      		tst __tmp_reg__
 1484 002e 01F4      		brne .-6
 1485 0030 3197      		sbiw r30,1
 1486 0032 E61B      		sub r30,r22
 1487 0034 F70B      		sbc r31,r23
 1488 0036 CB01      		movw r24,r22
 1489 0038 BF01      		movw r22,r30
 1490               	.LVL172:
 1491 003a 40E0      		ldi r20,lo8(0)
 1492 003c 50E0      		ldi r21,hi8(0)
 1493 003e 0E94 0000 		call Pipe_Write_Stream_LE
 1494               	.LVL173:
 1495               	.LBB131:
 1496               	.LBB132:
 1497               	.LSM261:
 1498 0042 9091 A900 		lds r25,169
 1499 0046 9064      		ori r25,lo8(64)
 1500 0048 9093 A900 		sts 169,r25
 1501               	.LBE132:
 1502               	.LBE131:
 1503               	.LSM262:
 1504 004c 0895      		ret
 1505               	.LFE134:
 1507               		.section	.text.CDC_Host_SendByte,"ax",@progbits
 1508               	.global	CDC_Host_SendByte
 1510               	CDC_Host_SendByte:
 1511               	.LFB135:
 1512               	.LSM263:
 1513               	.LVL174:
 1514 0000 DF93      		push r29
 1515 0002 CF93      		push r28
 1516 0004 0F92      		push __tmp_reg__
 1517 0006 CDB7      		in r28,__SP_L__
 1518 0008 DEB7      		in r29,__SP_H__
 1519               	/* prologue: function */
 1520               	/* frame size = 1 */
 1521               	/* stack size = 3 */
 1522               	.L__stack_usage = 3
 1523               	.LSM264:
 1524 000a 2091 0000 		lds r18,USB_HostState
 1525 000e 2B30      		cpi r18,lo8(11)
 1526 0010 01F0      		breq .L137
 1527               	.L136:
 1528               	.LSM265:
 1529 0012 82E0      		ldi r24,lo8(2)
 1530               	.LVL175:
 1531               	.L133:
 1532               	/* epilogue start */
 1533               	.LSM266:
 1534 0014 0F90      		pop __tmp_reg__
 1535 0016 CF91      		pop r28
 1536 0018 DF91      		pop r29
 1537 001a 0895      		ret
 1538               	.LVL176:
 1539               	.L137:
 1540               	.LSM267:
 1541 001c FC01      		movw r30,r24
 1542 001e 2681      		ldd r18,Z+6
 1543 0020 2223      		tst r18
 1544 0022 01F0      		breq .L136
 1545               	.LSM268:
 1546 0024 8281      		ldd r24,Z+2
 1547               	.LVL177:
 1548               	.LBB133:
 1549               	.LBB134:
 1550               	.LSM269:
 1551 0026 8093 A700 		sts 167,r24
 1552               	.LBE134:
 1553               	.LBE133:
 1554               	.LBB135:
 1555               	.LBB136:
 1556               	.LSM270:
 1557 002a 8091 A900 		lds r24,169
 1558 002e 8F7B      		andi r24,lo8(-65)
 1559 0030 8093 A900 		sts 169,r24
 1560               	.LBE136:
 1561               	.LBE135:
 1562               	.LBB137:
 1563               	.LBB138:
 1564               	.LSM271:
 1565 0034 8091 A600 		lds r24,166
 1566               	.LBE138:
 1567               	.LBE137:
 1568               	.LSM272:
 1569 0038 85FF      		sbrs r24,5
 1570 003a 00C0      		rjmp .L138
 1571               	.LVL178:
 1572               	.L134:
 1573               	.LBB139:
 1574               	.LBB140:
 1575               	.LSM273:
 1576 003c 6093 AF00 		sts 175,r22
 1577               	.LBE140:
 1578               	.LBE139:
 1579               	.LBB141:
 1580               	.LBB142:
 1581               	.LSM274:
 1582 0040 8091 A900 		lds r24,169
 1583 0044 8064      		ori r24,lo8(64)
 1584 0046 8093 A900 		sts 169,r24
 1585               	.LBE142:
 1586               	.LBE141:
 1587               	.LSM275:
 1588 004a 80E0      		ldi r24,lo8(0)
 1589               	/* epilogue start */
 1590               	.LSM276:
 1591 004c 0F90      		pop __tmp_reg__
 1592 004e CF91      		pop r28
 1593 0050 DF91      		pop r29
 1594 0052 0895      		ret
 1595               	.LVL179:
 1596               	.L138:
 1597               	.LBB143:
 1598               	.LBB144:
 1599               	.LSM277:
 1600 0054 8091 A600 		lds r24,166
 1601 0058 8B77      		andi r24,lo8(123)
 1602 005a 8093 A600 		sts 166,r24
 1603               	.LBE144:
 1604               	.LBE143:
 1605               	.LSM278:
 1606 005e 6983      		std Y+1,r22
 1607 0060 0E94 0000 		call Pipe_WaitUntilReady
 1608               	.LVL180:
 1609 0064 6981      		ldd r22,Y+1
 1610 0066 8823      		tst r24
 1611 0068 01F0      		breq .L134
 1612 006a 00C0      		rjmp .L133
 1613               	.LFE135:
 1615               		.section	.text.CDC_Host_putchar,"ax",@progbits
 1617               	CDC_Host_putchar:
 1618               	.LFB141:
 1619               	.LSM279:
 1620               	.LVL181:
 1621               	/* prologue: function */
 1622               	/* frame size = 0 */
 1623               	/* stack size = 0 */
 1624               	.L__stack_usage = 0
 1625 0000 282F      		mov r18,r24
 1626 0002 FB01      		movw r30,r22
 1627               	.LSM280:
 1628 0004 8485      		ldd r24,Z+12
 1629 0006 9585      		ldd r25,Z+13
 1630               	.LVL182:
 1631 0008 622F      		mov r22,r18
 1632               	.LVL183:
 1633 000a 0E94 0000 		call CDC_Host_SendByte
 1634               	.LVL184:
 1635 000e 8823      		tst r24
 1636 0010 01F4      		brne .L142
 1637 0012 20E0      		ldi r18,lo8(0)
 1638 0014 30E0      		ldi r19,hi8(0)
 1639               	.LSM281:
 1640 0016 C901      		movw r24,r18
 1641               	/* epilogue start */
 1642 0018 0895      		ret
 1643               	.L142:
 1644               	.LSM282:
 1645 001a 2FEF      		ldi r18,lo8(-1)
 1646 001c 3FEF      		ldi r19,hi8(-1)
 1647               	.LSM283:
 1648 001e C901      		movw r24,r18
 1649               	/* epilogue start */
 1650 0020 0895      		ret
 1651               	.LFE141:
 1653               		.section	.text.CDC_Host_BytesReceived,"ax",@progbits
 1654               	.global	CDC_Host_BytesReceived
 1656               	CDC_Host_BytesReceived:
 1657               	.LFB136:
 1658               	.LSM284:
 1659               	.LVL185:
 1660               	/* prologue: function */
 1661               	/* frame size = 0 */
 1662               	/* stack size = 0 */
 1663               	.L__stack_usage = 0
 1664               	.LSM285:
 1665 0000 2091 0000 		lds r18,USB_HostState
 1666 0004 2B30      		cpi r18,lo8(11)
 1667 0006 01F0      		breq .L149
 1668               	.L148:
 1669               	.LSM286:
 1670 0008 20E0      		ldi r18,lo8(0)
 1671 000a 30E0      		ldi r19,hi8(0)
 1672               	.LVL186:
 1673               	.L144:
 1674               	.LSM287:
 1675 000c C901      		movw r24,r18
 1676               	/* epilogue start */
 1677 000e 0895      		ret
 1678               	.LVL187:
 1679               	.L149:
 1680               	.LSM288:
 1681 0010 FC01      		movw r30,r24
 1682 0012 2681      		ldd r18,Z+6
 1683 0014 2223      		tst r18
 1684 0016 01F0      		breq .L148
 1685               	.LSM289:
 1686 0018 8081      		ld r24,Z
 1687               	.LVL188:
 1688               	.LBB145:
 1689               	.LBB146:
 1690               	.LSM290:
 1691 001a 8093 A700 		sts 167,r24
 1692               	.LBE146:
 1693               	.LBE145:
 1694               	.LBB147:
 1695               	.LBB148:
 1696               	.LSM291:
 1697 001e 8091 A900 		lds r24,169
 1698 0022 8F7B      		andi r24,lo8(-65)
 1699 0024 8093 A900 		sts 169,r24
 1700               	.LBE148:
 1701               	.LBE147:
 1702               	.LBB149:
 1703               	.LBB150:
 1704               	.LSM292:
 1705 0028 8091 A600 		lds r24,166
 1706               	.LBE150:
 1707               	.LBE149:
 1708               	.LSM293:
 1709 002c 80FF      		sbrs r24,0
 1710 002e 00C0      		rjmp .L145
 1711               	.LBB151:
 1712               	.LBB152:
 1713               	.LSM294:
 1714 0030 8091 F600 		lds r24,246
 1715 0034 9091 F700 		lds r25,246+1
 1716               	.LBE152:
 1717               	.LBE151:
 1718               	.LSM295:
 1719 0038 0097      		sbiw r24,0
 1720 003a 01F4      		brne .L146
 1721               	.LBB153:
 1722               	.LBB154:
 1723               	.LSM296:
 1724 003c 8091 A600 		lds r24,166
 1725 0040 8E77      		andi r24,lo8(126)
 1726 0042 8093 A600 		sts 166,r24
 1727               	.LBE154:
 1728               	.LBE153:
 1729               	.LBB155:
 1730               	.LBB156:
 1731               	.LSM297:
 1732 0046 8091 A900 		lds r24,169
 1733 004a 8064      		ori r24,lo8(64)
 1734 004c 8093 A900 		sts 169,r24
 1735               	.LBE156:
 1736               	.LBE155:
 1737               	.LSM298:
 1738 0050 20E0      		ldi r18,lo8(0)
 1739 0052 30E0      		ldi r19,hi8(0)
 1740 0054 00C0      		rjmp .L144
 1741               	.L145:
 1742               	.LBB157:
 1743               	.LBB158:
 1744               	.LSM299:
 1745 0056 8091 A900 		lds r24,169
 1746 005a 8064      		ori r24,lo8(64)
 1747 005c 8093 A900 		sts 169,r24
 1748               	.LBE158:
 1749               	.LBE157:
 1750               	.LSM300:
 1751 0060 20E0      		ldi r18,lo8(0)
 1752 0062 30E0      		ldi r19,hi8(0)
 1753               	.LSM301:
 1754 0064 C901      		movw r24,r18
 1755               	/* epilogue start */
 1756 0066 0895      		ret
 1757               	.L146:
 1758               	.LBB159:
 1759               	.LBB160:
 1760               	.LSM302:
 1761 0068 8091 A900 		lds r24,169
 1762 006c 8064      		ori r24,lo8(64)
 1763 006e 8093 A900 		sts 169,r24
 1764               	.LBE160:
 1765               	.LBE159:
 1766               	.LBB161:
 1767               	.LBB162:
 1768               	.LSM303:
 1769 0072 2091 F600 		lds r18,246
 1770 0076 3091 F700 		lds r19,246+1
 1771               	.LBE162:
 1772               	.LBE161:
 1773               	.LSM304:
 1774 007a 00C0      		rjmp .L144
 1775               	.LFE136:
 1777               		.section	.text.CDC_Host_ReceiveByte,"ax",@progbits
 1778               	.global	CDC_Host_ReceiveByte
 1780               	CDC_Host_ReceiveByte:
 1781               	.LFB137:
 1782               	.LSM305:
 1783               	.LVL189:
 1784               	/* prologue: function */
 1785               	/* frame size = 0 */
 1786               	/* stack size = 0 */
 1787               	.L__stack_usage = 0
 1788               	.LSM306:
 1789 0000 2091 0000 		lds r18,USB_HostState
 1790 0004 2B30      		cpi r18,lo8(11)
 1791 0006 01F0      		breq .L158
 1792               	.L155:
 1793               	.LSM307:
 1794 0008 2FEF      		ldi r18,lo8(-1)
 1795 000a 3FEF      		ldi r19,hi8(-1)
 1796               	.LVL190:
 1797               	.L151:
 1798               	.LSM308:
 1799 000c C901      		movw r24,r18
 1800               	/* epilogue start */
 1801 000e 0895      		ret
 1802               	.LVL191:
 1803               	.L158:
 1804               	.LSM309:
 1805 0010 FC01      		movw r30,r24
 1806 0012 2681      		ldd r18,Z+6
 1807 0014 2223      		tst r18
 1808 0016 01F0      		breq .L155
 1809               	.LVL192:
 1810               	.LSM310:
 1811 0018 8081      		ld r24,Z
 1812               	.LVL193:
 1813               	.LBB163:
 1814               	.LBB164:
 1815               	.LSM311:
 1816 001a 8093 A700 		sts 167,r24
 1817               	.LBE164:
 1818               	.LBE163:
 1819               	.LBB165:
 1820               	.LBB166:
 1821               	.LSM312:
 1822 001e 8091 A900 		lds r24,169
 1823 0022 8F7B      		andi r24,lo8(-65)
 1824 0024 8093 A900 		sts 169,r24
 1825               	.LBE166:
 1826               	.LBE165:
 1827               	.LBB167:
 1828               	.LBB168:
 1829               	.LSM313:
 1830 0028 8091 A600 		lds r24,166
 1831               	.LBE168:
 1832               	.LBE167:
 1833               	.LSM314:
 1834 002c 80FF      		sbrs r24,0
 1835 002e 00C0      		rjmp .L156
 1836               	.LBB169:
 1837               	.LBB170:
 1838               	.LSM315:
 1839 0030 8091 F600 		lds r24,246
 1840 0034 9091 F700 		lds r25,246+1
 1841               	.LBE170:
 1842               	.LBE169:
 1843               	.LSM316:
 1844 0038 0097      		sbiw r24,0
 1845 003a 01F0      		breq .L157
 1846               	.LBB171:
 1847               	.LBB172:
 1848               	.LSM317:
 1849 003c 2091 AF00 		lds r18,175
 1850               	.LBE172:
 1851               	.LBE171:
 1852               	.LSM318:
 1853 0040 30E0      		ldi r19,lo8(0)
 1854               	.LVL194:
 1855               	.L153:
 1856               	.LBB173:
 1857               	.LBB174:
 1858               	.LSM319:
 1859 0042 8091 F600 		lds r24,246
 1860 0046 9091 F700 		lds r25,246+1
 1861               	.LBE174:
 1862               	.LBE173:
 1863               	.LSM320:
 1864 004a 0097      		sbiw r24,0
 1865 004c 01F4      		brne .L152
 1866               	.LBB175:
 1867               	.LBB176:
 1868               	.LSM321:
 1869 004e 8091 A600 		lds r24,166
 1870 0052 8E77      		andi r24,lo8(126)
 1871 0054 8093 A600 		sts 166,r24
 1872               	.LVL195:
 1873               	.L152:
 1874               	.LBE176:
 1875               	.LBE175:
 1876               	.LBB177:
 1877               	.LBB178:
 1878               	.LSM322:
 1879 0058 8091 A900 		lds r24,169
 1880 005c 8064      		ori r24,lo8(64)
 1881 005e 8093 A900 		sts 169,r24
 1882               	.LBE178:
 1883               	.LBE177:
 1884               	.LSM323:
 1885 0062 00C0      		rjmp .L151
 1886               	.LVL196:
 1887               	.L156:
 1888               	.LSM324:
 1889 0064 2FEF      		ldi r18,lo8(-1)
 1890 0066 3FEF      		ldi r19,hi8(-1)
 1891 0068 00C0      		rjmp .L152
 1892               	.L157:
 1893 006a 2FEF      		ldi r18,lo8(-1)
 1894 006c 3FEF      		ldi r19,hi8(-1)
 1895 006e 00C0      		rjmp .L153
 1896               	.LFE137:
 1898               		.section	.text.CDC_Host_getchar,"ax",@progbits
 1900               	CDC_Host_getchar:
 1901               	.LFB142:
 1902               	.LSM325:
 1903               	.LVL197:
 1904               	/* prologue: function */
 1905               	/* frame size = 0 */
 1906               	/* stack size = 0 */
 1907               	.L__stack_usage = 0
 1908               	.LSM326:
 1909 0000 FC01      		movw r30,r24
 1910 0002 8485      		ldd r24,Z+12
 1911 0004 9585      		ldd r25,Z+13
 1912               	.LVL198:
 1913 0006 0E94 0000 		call CDC_Host_ReceiveByte
 1914               	.LVL199:
 1915 000a 9C01      		movw r18,r24
 1916               	.LVL200:
 1917               	.LSM327:
 1918 000c 97FD      		sbrc r25,7
 1919 000e 00C0      		rjmp .L161
 1920               	.LSM328:
 1921 0010 C901      		movw r24,r18
 1922               	.LVL201:
 1923               	/* epilogue start */
 1924 0012 0895      		ret
 1925               	.L161:
 1926               	.LSM329:
 1927 0014 2EEF      		ldi r18,lo8(-2)
 1928 0016 3FEF      		ldi r19,hi8(-2)
 1929               	.LVL202:
 1930               	.LSM330:
 1931 0018 C901      		movw r24,r18
 1932               	.LVL203:
 1933               	/* epilogue start */
 1934 001a 0895      		ret
 1935               	.LFE142:
 1937               		.section	.text.CDC_Host_Flush,"ax",@progbits
 1938               	.global	CDC_Host_Flush
 1940               	CDC_Host_Flush:
 1941               	.LFB138:
 1942               	.LSM331:
 1943               	.LVL204:
 1944               	/* prologue: function */
 1945               	/* frame size = 0 */
 1946               	/* stack size = 0 */
 1947               	.L__stack_usage = 0
 1948               	.LSM332:
 1949 0000 2091 0000 		lds r18,USB_HostState
 1950 0004 2B30      		cpi r18,lo8(11)
 1951 0006 01F0      		breq .L168
 1952               	.L166:
 1953               	.LSM333:
 1954 0008 82E0      		ldi r24,lo8(2)
 1955               	.LVL205:
 1956 000a 0895      		ret
 1957               	.LVL206:
 1958               	.L168:
 1959               	.LSM334:
 1960 000c FC01      		movw r30,r24
 1961 000e 2681      		ldd r18,Z+6
 1962 0010 2223      		tst r18
 1963 0012 01F0      		breq .L166
 1964               	.LSM335:
 1965 0014 8281      		ldd r24,Z+2
 1966               	.LVL207:
 1967               	.LBB179:
 1968               	.LBB180:
 1969               	.LSM336:
 1970 0016 8093 A700 		sts 167,r24
 1971               	.LBE180:
 1972               	.LBE179:
 1973               	.LBB181:
 1974               	.LBB182:
 1975               	.LSM337:
 1976 001a 8091 A900 		lds r24,169
 1977 001e 8F7B      		andi r24,lo8(-65)
 1978 0020 8093 A900 		sts 169,r24
 1979               	.LBE182:
 1980               	.LBE181:
 1981               	.LBB183:
 1982               	.LBB184:
 1983               	.LSM338:
 1984 0024 8091 F600 		lds r24,246
 1985 0028 9091 F700 		lds r25,246+1
 1986               	.LBE184:
 1987               	.LBE183:
 1988               	.LSM339:
 1989 002c 0097      		sbiw r24,0
 1990 002e 01F0      		breq .L167
 1991               	.LBB185:
 1992               	.LBB186:
 1993               	.LSM340:
 1994 0030 9091 A600 		lds r25,166
 1995               	.LVL208:
 1996               	.LBE186:
 1997               	.LBE185:
 1998               	.LBB187:
 1999               	.LBB188:
 2000               	.LSM341:
 2001 0034 8091 A600 		lds r24,166
 2002 0038 8B77      		andi r24,lo8(123)
 2003 003a 8093 A600 		sts 166,r24
 2004               	.LBE188:
 2005               	.LBE187:
 2006               	.LSM342:
 2007 003e 95FF      		sbrs r25,5
 2008 0040 00C0      		rjmp .L169
 2009               	.LVL209:
 2010               	.L164:
 2011               	.LBB189:
 2012               	.LBB190:
 2013               	.LSM343:
 2014 0042 8091 A900 		lds r24,169
 2015 0046 8064      		ori r24,lo8(64)
 2016 0048 8093 A900 		sts 169,r24
 2017               	.LBE190:
 2018               	.LBE189:
 2019               	.LSM344:
 2020 004c 80E0      		ldi r24,lo8(0)
 2021 004e 0895      		ret
 2022               	.LVL210:
 2023               	.L167:
 2024               	.LSM345:
 2025 0050 80E0      		ldi r24,lo8(0)
 2026               	.LVL211:
 2027               	.L163:
 2028               	.LSM346:
 2029 0052 0895      		ret
 2030               	.LVL212:
 2031               	.L169:
 2032               	.LSM347:
 2033 0054 0E94 0000 		call Pipe_WaitUntilReady
 2034               	.LVL213:
 2035 0058 8823      		tst r24
 2036 005a 01F4      		brne .L163
 2037               	.LBB191:
 2038               	.LBB192:
 2039               	.LSM348:
 2040 005c 8091 A600 		lds r24,166
 2041               	.LVL214:
 2042 0060 8B77      		andi r24,lo8(123)
 2043 0062 8093 A600 		sts 166,r24
 2044 0066 00C0      		rjmp .L164
 2045               	.LBE192:
 2046               	.LBE191:
 2047               	.LFE138:
 2049               		.section	.text.CDC_Host_USBTask,"ax",@progbits
 2050               	.global	CDC_Host_USBTask
 2052               	CDC_Host_USBTask:
 2053               	.LFB129:
 2054               	.LSM349:
 2055               	.LVL215:
 2056 0000 0F93      		push r16
 2057 0002 1F93      		push r17
 2058 0004 DF93      		push r29
 2059 0006 CF93      		push r28
 2060 0008 CDB7      		in r28,__SP_L__
 2061 000a DEB7      		in r29,__SP_H__
 2062 000c 2897      		sbiw r28,8
 2063 000e 0FB6      		in __tmp_reg__,__SREG__
 2064 0010 F894      		cli
 2065 0012 DEBF      		out __SP_H__,r29
 2066 0014 0FBE      		out __SREG__,__tmp_reg__
 2067 0016 CDBF      		out __SP_L__,r28
 2068               	/* prologue: function */
 2069               	/* frame size = 8 */
 2070               	/* stack size = 12 */
 2071               	.L__stack_usage = 12
 2072 0018 8C01      		movw r16,r24
 2073               	.LSM350:
 2074 001a 8091 0000 		lds r24,USB_HostState
 2075               	.LVL216:
 2076 001e 8B30      		cpi r24,lo8(11)
 2077 0020 01F0      		breq .L174
 2078               	.L170:
 2079               	/* epilogue start */
 2080               	.LSM351:
 2081 0022 2896      		adiw r28,8
 2082 0024 0FB6      		in __tmp_reg__,__SREG__
 2083 0026 F894      		cli
 2084 0028 DEBF      		out __SP_H__,r29
 2085 002a 0FBE      		out __SREG__,__tmp_reg__
 2086 002c CDBF      		out __SP_L__,r28
 2087 002e CF91      		pop r28
 2088 0030 DF91      		pop r29
 2089 0032 1F91      		pop r17
 2090 0034 0F91      		pop r16
 2091               	.LVL217:
 2092 0036 0895      		ret
 2093               	.LVL218:
 2094               	.L174:
 2095               	.LSM352:
 2096 0038 F801      		movw r30,r16
 2097 003a 8681      		ldd r24,Z+6
 2098 003c 8823      		tst r24
 2099 003e 01F0      		breq .L170
 2100               	.LSM353:
 2101 0040 8481      		ldd r24,Z+4
 2102               	.LVL219:
 2103               	.LBB193:
 2104               	.LBB194:
 2105               	.LSM354:
 2106 0042 8093 A700 		sts 167,r24
 2107               	.LBE194:
 2108               	.LBE193:
 2109               	.LBB195:
 2110               	.LBB196:
 2111               	.LSM355:
 2112 0046 8091 A900 		lds r24,169
 2113 004a 8F7B      		andi r24,lo8(-65)
 2114 004c 8093 A900 		sts 169,r24
 2115               	.LBE196:
 2116               	.LBE195:
 2117               	.LBB197:
 2118               	.LBB198:
 2119               	.LSM356:
 2120 0050 8091 A600 		lds r24,166
 2121               	.LBE198:
 2122               	.LBE197:
 2123               	.LSM357:
 2124 0054 80FD      		sbrc r24,0
 2125 0056 00C0      		rjmp .L175
 2126               	.LVL220:
 2127               	.L172:
 2128               	.LBB199:
 2129               	.LBB200:
 2130               	.LSM358:
 2131 0058 8091 A900 		lds r24,169
 2132 005c 8064      		ori r24,lo8(64)
 2133 005e 8093 A900 		sts 169,r24
 2134               	.LBE200:
 2135               	.LBE199:
 2136               	.LSM359:
 2137 0062 C801      		movw r24,r16
 2138 0064 0E94 0000 		call CDC_Host_Flush
 2139 0068 00C0      		rjmp .L170
 2140               	.LVL221:
 2141               	.L175:
 2142               	.LBB201:
 2143               	.LSM360:
 2144 006a CE01      		movw r24,r28
 2145 006c 0196      		adiw r24,1
 2146 006e 68E0      		ldi r22,lo8(8)
 2147 0070 70E0      		ldi r23,hi8(8)
 2148 0072 40E0      		ldi r20,lo8(0)
 2149 0074 50E0      		ldi r21,hi8(0)
 2150 0076 0E94 0000 		call Pipe_Read_Stream_LE
 2151               	.LVL222:
 2152               	.LSM361:
 2153 007a 8A81      		ldd r24,Y+2
 2154 007c 8032      		cpi r24,lo8(32)
 2155 007e 01F0      		breq .L176
 2156               	.L173:
 2157               	.LBB202:
 2158               	.LBB203:
 2159               	.LSM362:
 2160 0080 8091 A600 		lds r24,166
 2161 0084 8E77      		andi r24,lo8(126)
 2162 0086 8093 A600 		sts 166,r24
 2163 008a 00C0      		rjmp .L172
 2164               	.L176:
 2165               	.LBE203:
 2166               	.LBE202:
 2167               	.LSM363:
 2168 008c 8981      		ldd r24,Y+1
 2169 008e 813A      		cpi r24,lo8(-95)
 2170 0090 01F4      		brne .L173
 2171               	.LSM364:
 2172 0092 C801      		movw r24,r16
 2173 0094 0F96      		adiw r24,15
 2174 0096 61E0      		ldi r22,lo8(1)
 2175 0098 70E0      		ldi r23,hi8(1)
 2176 009a 40E0      		ldi r20,lo8(0)
 2177 009c 50E0      		ldi r21,hi8(0)
 2178 009e 0E94 0000 		call Pipe_Read_Stream_LE
 2179               	.LBB204:
 2180               	.LBB205:
 2181               	.LSM365:
 2182 00a2 8091 A600 		lds r24,166
 2183 00a6 8E77      		andi r24,lo8(126)
 2184 00a8 8093 A600 		sts 166,r24
 2185               	.LBE205:
 2186               	.LBE204:
 2187               	.LSM366:
 2188 00ac C801      		movw r24,r16
 2189 00ae 0E94 0000 		call EVENT_CDC_Host_ControLineStateChanged
 2190 00b2 00C0      		rjmp .L172
 2191               	.LBE201:
 2192               	.LFE129:
 2194               		.section	.text.CDC_Host_getchar_Blocking,"ax",@progbits
 2196               	CDC_Host_getchar_Blocking:
 2197               	.LFB143:
 2198               	.LSM367:
 2199               	.LVL223:
 2200 0000 CF93      		push r28
 2201 0002 DF93      		push r29
 2202               	/* prologue: function */
 2203               	/* frame size = 0 */
 2204               	/* stack size = 2 */
 2205               	.L__stack_usage = 2
 2206 0004 EC01      		movw r28,r24
 2207               	.LSM368:
 2208 0006 00C0      		rjmp .L178
 2209               	.LVL224:
 2210               	.L180:
 2211               	.LSM369:
 2212 0008 8091 0000 		lds r24,USB_HostState
 2213 000c 8130      		cpi r24,lo8(1)
 2214 000e 01F0      		breq .L181
 2215               	.LSM370:
 2216 0010 8C85      		ldd r24,Y+12
 2217 0012 9D85      		ldd r25,Y+13
 2218 0014 0E94 0000 		call CDC_Host_USBTask
 2219               	.LVL225:
 2220               	.LSM371:
 2221 0018 0E94 0000 		call USB_USBTask
 2222               	.L178:
 2223               	.LSM372:
 2224 001c 8C85      		ldd r24,Y+12
 2225 001e 9D85      		ldd r25,Y+13
 2226 0020 0E94 0000 		call CDC_Host_ReceiveByte
 2227 0024 9C01      		movw r18,r24
 2228               	.LVL226:
 2229 0026 97FD      		sbrc r25,7
 2230 0028 00C0      		rjmp .L180
 2231               	.LSM373:
 2232 002a C901      		movw r24,r18
 2233               	.LVL227:
 2234               	/* epilogue start */
 2235 002c DF91      		pop r29
 2236 002e CF91      		pop r28
 2237               	.LVL228:
 2238 0030 0895      		ret
 2239               	.LVL229:
 2240               	.L181:
 2241               	.LSM374:
 2242 0032 2EEF      		ldi r18,lo8(-2)
 2243 0034 3FEF      		ldi r19,hi8(-2)
 2244               	.LVL230:
 2245               	.LSM375:
 2246 0036 C901      		movw r24,r18
 2247               	/* epilogue start */
 2248 0038 DF91      		pop r29
 2249 003a CF91      		pop r28
 2250               	.LVL231:
 2251 003c 0895      		ret
 2252               	.LFE143:
 2254               		.section	.text.CDC_Host_CreateStream,"ax",@progbits
 2255               	.global	CDC_Host_CreateStream
 2257               	CDC_Host_CreateStream:
 2258               	.LFB139:
 2259               	.LSM376:
 2260               	.LVL232:
 2261               	/* prologue: function */
 2262               	/* frame size = 0 */
 2263               	/* stack size = 0 */
 2264               	.L__stack_usage = 0
 2265 0000 FB01      		movw r30,r22
 2266               	.LSM377:
 2267 0002 2EE0      		ldi r18,lo8(14)
 2268 0004 DB01      		movw r26,r22
 2269 0006 1D92      		st X+,__zero_reg__
 2270 0008 2A95      	        dec r18
 2271 000a 01F4      		brne .-6
 2272 000c 23E0      		ldi r18,lo8(3)
 2273 000e 2383      		std Z+3,r18
 2274 0010 20E0      		ldi r18,lo8(gs(CDC_Host_putchar))
 2275 0012 30E0      		ldi r19,hi8(gs(CDC_Host_putchar))
 2276 0014 3187      		std Z+9,r19
 2277 0016 2087      		std Z+8,r18
 2278 0018 20E0      		ldi r18,lo8(gs(CDC_Host_getchar))
 2279 001a 30E0      		ldi r19,hi8(gs(CDC_Host_getchar))
 2280 001c 3387      		std Z+11,r19
 2281 001e 2287      		std Z+10,r18
 2282               	.LSM378:
 2283 0020 9587      		std Z+13,r25
 2284 0022 8487      		std Z+12,r24
 2285               	/* epilogue start */
 2286               	.LSM379:
 2287 0024 0895      		ret
 2288               	.LFE139:
 2290               		.section	.text.CDC_Host_CreateBlockingStream,"ax",@progbits
 2291               	.global	CDC_Host_CreateBlockingStream
 2293               	CDC_Host_CreateBlockingStream:
 2294               	.LFB140:
 2295               	.LSM380:
 2296               	.LVL233:
 2297               	/* prologue: function */
 2298               	/* frame size = 0 */
 2299               	/* stack size = 0 */
 2300               	.L__stack_usage = 0
 2301 0000 FB01      		movw r30,r22
 2302               	.LSM381:
 2303 0002 2EE0      		ldi r18,lo8(14)
 2304 0004 DB01      		movw r26,r22
 2305 0006 1D92      		st X+,__zero_reg__
 2306 0008 2A95      	        dec r18
 2307 000a 01F4      		brne .-6
 2308 000c 23E0      		ldi r18,lo8(3)
 2309 000e 2383      		std Z+3,r18
 2310 0010 20E0      		ldi r18,lo8(gs(CDC_Host_putchar))
 2311 0012 30E0      		ldi r19,hi8(gs(CDC_Host_putchar))
 2312 0014 3187      		std Z+9,r19
 2313 0016 2087      		std Z+8,r18
 2314 0018 20E0      		ldi r18,lo8(gs(CDC_Host_getchar_Blocking))
 2315 001a 30E0      		ldi r19,hi8(gs(CDC_Host_getchar_Blocking))
 2316 001c 3387      		std Z+11,r19
 2317 001e 2287      		std Z+10,r18
 2318               	.LSM382:
 2319 0020 9587      		std Z+13,r25
 2320 0022 8487      		std Z+12,r24
 2321               	/* epilogue start */
 2322               	.LSM383:
 2323 0024 0895      		ret
 2324               	.LFE140:
 2326               		.section	.text.CDC_Host_Event_Stub,"ax",@progbits
 2327               	.global	CDC_Host_Event_Stub
 2329               	CDC_Host_Event_Stub:
 2330               	.LFB144:
 2331               	.LSM384:
 2332               	/* prologue: function */
 2333               	/* frame size = 0 */
 2334               	/* stack size = 0 */
 2335               	.L__stack_usage = 0
 2336               	/* epilogue start */
 2337               	.LSM385:
 2338 0000 0895      		ret
 2339               	.LFE144:
 2341               		.weak	EVENT_CDC_Host_ControLineStateChanged
 2342               		.set	EVENT_CDC_Host_ControLineStateChanged,CDC_Host_Event_Stub
 2519               	.Letext0:
DEFINED SYMBOLS
                            *ABS*:00000000 CDC.c
C:\Users\david\AppData\Local\Temp\cc7Zhpob.s:2      *ABS*:0000003f __SREG__
C:\Users\david\AppData\Local\Temp\cc7Zhpob.s:3      *ABS*:0000003e __SP_H__
C:\Users\david\AppData\Local\Temp\cc7Zhpob.s:4      *ABS*:0000003d __SP_L__
C:\Users\david\AppData\Local\Temp\cc7Zhpob.s:5      *ABS*:00000034 __CCP__
C:\Users\david\AppData\Local\Temp\cc7Zhpob.s:6      *ABS*:00000000 __tmp_reg__
C:\Users\david\AppData\Local\Temp\cc7Zhpob.s:7      *ABS*:00000001 __zero_reg__
C:\Users\david\AppData\Local\Temp\cc7Zhpob.s:18     .text.DCOMP_CDC_Host_NextCDCControlInterface:00000000 DCOMP_CDC_Host_NextCDCControlInterface
C:\Users\david\AppData\Local\Temp\cc7Zhpob.s:61     .text.DCOMP_CDC_Host_NextCDCDataInterface:00000000 DCOMP_CDC_Host_NextCDCDataInterface
C:\Users\david\AppData\Local\Temp\cc7Zhpob.s:104    .text.DCOMP_CDC_Host_NextCDCInterfaceEndpoint:00000000 DCOMP_CDC_Host_NextCDCInterfaceEndpoint
C:\Users\david\AppData\Local\Temp\cc7Zhpob.s:159    .text.CDC_Host_ConfigurePipes:00000000 CDC_Host_ConfigurePipes
C:\Users\david\AppData\Local\Temp\cc7Zhpob.s:1230   .text.CDC_Host_SetLineEncoding:00000000 CDC_Host_SetLineEncoding
C:\Users\david\AppData\Local\Temp\cc7Zhpob.s:1273   .text.CDC_Host_SendControlLineStateChange:00000000 CDC_Host_SendControlLineStateChange
C:\Users\david\AppData\Local\Temp\cc7Zhpob.s:1318   .text.CDC_Host_SendBreak:00000000 CDC_Host_SendBreak
C:\Users\david\AppData\Local\Temp\cc7Zhpob.s:1363   .text.CDC_Host_SendData:00000000 CDC_Host_SendData
C:\Users\david\AppData\Local\Temp\cc7Zhpob.s:1433   .text.CDC_Host_SendString:00000000 CDC_Host_SendString
C:\Users\david\AppData\Local\Temp\cc7Zhpob.s:1510   .text.CDC_Host_SendByte:00000000 CDC_Host_SendByte
C:\Users\david\AppData\Local\Temp\cc7Zhpob.s:1617   .text.CDC_Host_putchar:00000000 CDC_Host_putchar
C:\Users\david\AppData\Local\Temp\cc7Zhpob.s:1656   .text.CDC_Host_BytesReceived:00000000 CDC_Host_BytesReceived
C:\Users\david\AppData\Local\Temp\cc7Zhpob.s:1780   .text.CDC_Host_ReceiveByte:00000000 CDC_Host_ReceiveByte
C:\Users\david\AppData\Local\Temp\cc7Zhpob.s:1900   .text.CDC_Host_getchar:00000000 CDC_Host_getchar
C:\Users\david\AppData\Local\Temp\cc7Zhpob.s:1940   .text.CDC_Host_Flush:00000000 CDC_Host_Flush
C:\Users\david\AppData\Local\Temp\cc7Zhpob.s:2052   .text.CDC_Host_USBTask:00000000 CDC_Host_USBTask
C:\Users\david\AppData\Local\Temp\cc7Zhpob.s:2329   .text.CDC_Host_Event_Stub:00000000 EVENT_CDC_Host_ControLineStateChanged
C:\Users\david\AppData\Local\Temp\cc7Zhpob.s:2196   .text.CDC_Host_getchar_Blocking:00000000 CDC_Host_getchar_Blocking
C:\Users\david\AppData\Local\Temp\cc7Zhpob.s:2257   .text.CDC_Host_CreateStream:00000000 CDC_Host_CreateStream
C:\Users\david\AppData\Local\Temp\cc7Zhpob.s:2293   .text.CDC_Host_CreateBlockingStream:00000000 CDC_Host_CreateBlockingStream
C:\Users\david\AppData\Local\Temp\cc7Zhpob.s:2329   .text.CDC_Host_Event_Stub:00000000 CDC_Host_Event_Stub

UNDEFINED SYMBOLS
Pipe_IsEndpointBound
USB_GetNextDescriptorComp
Pipe_ConfigurePipe
USB_ControlRequest
USB_Host_SendControlRequest
USB_HostState
Pipe_Write_Stream_LE
Pipe_WaitUntilReady
Pipe_Read_Stream_LE
USB_USBTask
