   1               		.file	"CameraControl_DeviceInfo.c"
   2               	__SREG__ = 0x3f
   3               	__SP_H__ = 0x3e
   4               	__SP_L__ = 0x3d
   5               	__CCP__ = 0x34
   6               	__tmp_reg__ = 0
   7               	__zero_reg__ = 1
  15               	.Ltext0:
  16               		.section	.text.CameraControl_DeviceInfo_CopyString.clone.0,"ax",@progbits
  18               	CameraControl_DeviceInfo_CopyString.clone.0:
  19               	.LFB146:
  20               	.LSM0:
  21               	.LVL0:
  22 0000 0F93      		push r16
  23 0002 1F93      		push r17
  24 0004 CF93      		push r28
  25 0006 DF93      		push r29
  26               	/* prologue: function */
  27               	/* frame size = 0 */
  28               	/* stack size = 4 */
  29               	.L__stack_usage = 4
  30 0008 FC01      		movw r30,r24
  31 000a DB01      		movw r26,r22
  32               	.LVL1:
  33               	.LSM1:
  34 000c C081      		ld r28,Z
  35 000e D181      		ldd r29,Z+1
  36 0010 7991      		ld r23,Y+
  37               	.LVL2:
  38               	.LSM2:
  39 0012 D183      		std Z+1,r29
  40 0014 C083      		st Z,r28
  41 0016 2D91      		ld r18,X+
  42 0018 3C91      		ld r19,X
  43 001a 1197      		sbiw r26,1
  44 001c 2150      		subi r18,lo8(-(-1))
  45 001e 3040      		sbci r19,hi8(-(-1))
  46 0020 1196      		adiw r26,1
  47 0022 3C93      		st X,r19
  48 0024 2E93      		st -X,r18
  49               	.LSM3:
  50 0026 7723      		tst r23
  51 0028 01F4      		brne .+2
  52 002a 00C0      		rjmp .L5
  53 002c C081      		ld r28,Z
  54 002e D181      		ldd r29,Z+1
  55 0030 9A01      		movw r18,r20
  56               	.LSM4:
  57 0032 60E0      		ldi r22,lo8(0)
  58               	.LVL3:
  59 0034 00C0      		rjmp .L3
  60               	.LVL4:
  61               	.L4:
  62               	.LSM5:
  63 0036 6331      		cpi r22,lo8(19)
  64 0038 01F0      		breq .L8
  65               	.LVL5:
  66               	.L3:
  67               	.LSM6:
  68 003a 8881      		ld r24,Y
  69 003c E901      		movw r28,r18
  70 003e 8993      		st Y+,r24
  71 0040 9E01      		movw r18,r28
  72               	.LSM7:
  73 0042 7150      		subi r23,lo8(-(-1))
  74               	.LVL6:
  75 0044 8D91      		ld r24,X+
  76 0046 9C91      		ld r25,X
  77 0048 1197      		sbiw r26,1
  78 004a 0297      		sbiw r24,2
  79 004c 1196      		adiw r26,1
  80 004e 9C93      		st X,r25
  81 0050 8E93      		st -X,r24
  82 0052 C081      		ld r28,Z
  83 0054 D181      		ldd r29,Z+1
  84 0056 2296      		adiw r28,2
  85 0058 D183      		std Z+1,r29
  86 005a C083      		st Z,r28
  87 005c 6F5F      		subi r22,lo8(-(1))
  88               	.LVL7:
  89 005e 7723      		tst r23
  90 0060 01F4      		brne .L4
  91 0062 2D91      		ld r18,X+
  92 0064 3C91      		ld r19,X
  93 0066 1197      		sbiw r26,1
  94 0068 70E0      		ldi r23,lo8(0)
  95               	.LVL8:
  96 006a 81E0      		ldi r24,lo8(1)
  97 006c C0E0      		ldi r28,lo8(0)
  98 006e D0E0      		ldi r29,hi8(0)
  99 0070 00E0      		ldi r16,lo8(0)
 100 0072 10E0      		ldi r17,hi8(0)
 101               	.LVL9:
 102               	.L2:
 103               	.LSM8:
 104 0074 200F      		add r18,r16
 105 0076 311F      		adc r19,r17
 106 0078 1196      		adiw r26,1
 107 007a 3C93      		st X,r19
 108 007c 2E93      		st -X,r18
 109               	.LSM9:
 110 007e 2081      		ld r18,Z
 111 0080 3181      		ldd r19,Z+1
 112 0082 2C0F      		add r18,r28
 113 0084 3D1F      		adc r19,r29
 114 0086 3183      		std Z+1,r19
 115 0088 2083      		st Z,r18
 116               	.LSM10:
 117 008a 460F      		add r20,r22
 118 008c 571F      		adc r21,r23
 119               	.LVL10:
 120 008e FA01      		movw r30,r20
 121               	.LVL11:
 122 0090 1082      		st Z,__zero_reg__
 123               	/* epilogue start */
 124               	.LSM11:
 125 0092 DF91      		pop r29
 126 0094 CF91      		pop r28
 127 0096 1F91      		pop r17
 128 0098 0F91      		pop r16
 129 009a 0895      		ret
 130               	.LVL12:
 131               	.L8:
 132               	.LSM12:
 133 009c 2D91      		ld r18,X+
 134 009e 3C91      		ld r19,X
 135 00a0 1197      		sbiw r26,1
 136 00a2 C72F      		mov r28,r23
 137 00a4 D0E0      		ldi r29,lo8(0)
 138 00a6 0027      		clr r16
 139 00a8 1127      		clr r17
 140 00aa 0C1B      		sub r16,r28
 141 00ac 1D0B      		sbc r17,r29
 142 00ae 000F      		lsl r16
 143 00b0 111F      		rol r17
 144 00b2 CC0F      		lsl r28
 145 00b4 DD1F      		rol r29
 146 00b6 80E0      		ldi r24,lo8(0)
 147 00b8 63E1      		ldi r22,lo8(19)
 148 00ba 70E0      		ldi r23,hi8(19)
 149               	.LVL13:
 150 00bc 00C0      		rjmp .L2
 151               	.LVL14:
 152               	.L5:
 153               	.LSM13:
 154 00be 81E0      		ldi r24,lo8(1)
 155 00c0 60E0      		ldi r22,lo8(0)
 156 00c2 70E0      		ldi r23,hi8(0)
 157 00c4 C0E0      		ldi r28,lo8(0)
 158 00c6 D0E0      		ldi r29,hi8(0)
 159 00c8 00E0      		ldi r16,lo8(0)
 160 00ca 10E0      		ldi r17,hi8(0)
 161 00cc 00C0      		rjmp .L2
 162               	.LFE146:
 164               		.section	.text.CameraControl_DeviceInfo_CopyArray.clone.1,"ax",@progbits
 166               	CameraControl_DeviceInfo_CopyArray.clone.1:
 167               	.LFB145:
 168               	.LSM14:
 169               	.LVL15:
 170 0000 2F92      		push r2
 171 0002 3F92      		push r3
 172 0004 4F92      		push r4
 173 0006 5F92      		push r5
 174 0008 6F92      		push r6
 175 000a 7F92      		push r7
 176 000c 8F92      		push r8
 177 000e 9F92      		push r9
 178 0010 AF92      		push r10
 179 0012 BF92      		push r11
 180 0014 CF92      		push r12
 181 0016 DF92      		push r13
 182 0018 EF92      		push r14
 183 001a FF92      		push r15
 184 001c 0F93      		push r16
 185 001e 1F93      		push r17
 186 0020 CF93      		push r28
 187 0022 DF93      		push r29
 188               	/* prologue: function */
 189               	/* frame size = 0 */
 190               	/* stack size = 18 */
 191               	.L__stack_usage = 18
 192 0024 5C01      		movw r10,r24
 193 0026 1B01      		movw r2,r22
 194 0028 4A01      		movw r8,r20
 195 002a B901      		movw r22,r18
 196               	.LVL16:
 197               	.LSM15:
 198 002c DC01      		movw r26,r24
 199 002e ED91      		ld r30,X+
 200 0030 FC91      		ld r31,X
 201 0032 8191      		ld r24,Z+
 202 0034 9191      		ld r25,Z+
 203 0036 A191      		ld r26,Z+
 204 0038 B191      		ld r27,Z+
 205               	.LVL17:
 206               	.LSM16:
 207 003a E501      		movw r28,r10
 208 003c F983      		std Y+1,r31
 209 003e E883      		st Y,r30
 210 0040 F101      		movw r30,r2
 211 0042 2081      		ld r18,Z
 212 0044 3181      		ldd r19,Z+1
 213               	.LVL18:
 214 0046 2450      		subi r18,lo8(-(-4))
 215 0048 3040      		sbci r19,hi8(-(-4))
 216 004a 3183      		std Z+1,r19
 217 004c 2083      		st Z,r18
 218               	.LSM17:
 219 004e EA01      		movw r28,r20
 220 0050 1882      		st Y,__zero_reg__
 221 0052 1982      		std Y+1,__zero_reg__
 222 0054 1A82      		std Y+2,__zero_reg__
 223 0056 1B82      		std Y+3,__zero_reg__
 224 0058 1C82      		std Y+4,__zero_reg__
 225 005a 1D82      		std Y+5,__zero_reg__
 226 005c 1E82      		std Y+6,__zero_reg__
 227 005e 1F82      		std Y+7,__zero_reg__
 228               	.LSM18:
 229 0060 0097      		sbiw r24,0
 230 0062 A105      		cpc r26,__zero_reg__
 231 0064 B105      		cpc r27,__zero_reg__
 232 0066 01F4      		brne .+2
 233 0068 00C0      		rjmp .L14
 234               	.LVL19:
 235 006a EE24      		clr r14
 236 006c FF24      		clr r15
 237 006e 8701      		movw r16,r14
 238 0070 4424      		clr r4
 239 0072 5524      		clr r5
 240 0074 3201      		movw r6,r4
 241               	.LBB4:
 242               	.LSM19:
 243 0076 21E0      		ldi r18,lo8(1)
 244 0078 C22E      		mov r12,r18
 245 007a D12C      		mov r13,__zero_reg__
 246 007c 00C0      		rjmp .L13
 247               	.LVL20:
 248               	.L17:
 249               	.LSM20:
 250 007e A601      		movw r20,r12
 251 0080 00C0      		rjmp 2f
 252 0082 440F      	1:	lsl r20
 253 0084 551F      		rol r21
 254 0086 2A95      	2:	dec r18
 255 0088 02F4      		brpl 1b
 256 008a 9A01      		movw r18,r20
 257               	.LVL21:
 258 008c 4427      		clr r20
 259 008e 37FD      		sbrc r19,7
 260 0090 4095      		com r20
 261 0092 542F      		mov r21,r20
 262 0094 422A      		or r4,r18
 263 0096 532A      		or r5,r19
 264 0098 642A      		or r6,r20
 265 009a 752A      		or r7,r21
 266               	.LVL22:
 267               	.L11:
 268               	.LBE4:
 269               	.LSM21:
 270 009c 0197      		sbiw r24,1
 271 009e A109      		sbc r26,__zero_reg__
 272 00a0 B109      		sbc r27,__zero_reg__
 273               	.LVL23:
 274 00a2 2296      		adiw r28,2
 275               	.LVL24:
 276 00a4 F501      		movw r30,r10
 277 00a6 D183      		std Z+1,r29
 278 00a8 C083      		st Z,r28
 279 00aa E101      		movw r28,r2
 280 00ac 2881      		ld r18,Y
 281 00ae 3981      		ldd r19,Y+1
 282 00b0 2250      		subi r18,lo8(-(-2))
 283 00b2 3040      		sbci r19,hi8(-(-2))
 284 00b4 3983      		std Y+1,r19
 285 00b6 2883      		st Y,r18
 286 00b8 0097      		sbiw r24,0
 287 00ba A105      		cpc r26,__zero_reg__
 288 00bc B105      		cpc r27,__zero_reg__
 289 00be 01F0      		breq .L16
 290               	.LVL25:
 291               	.L13:
 292               	.LBB5:
 293               	.LSM22:
 294 00c0 F501      		movw r30,r10
 295 00c2 C081      		ld r28,Z
 296 00c4 D181      		ldd r29,Z+1
 297 00c6 2881      		ld r18,Y
 298 00c8 3981      		ldd r19,Y+1
 299               	.LVL26:
 300               	.LSM23:
 301 00ca 2617      		cp r18,r22
 302 00cc 3707      		cpc r19,r23
 303 00ce 00F0      		brlo .L11
 304               	.LSM24:
 305 00d0 261B      		sub r18,r22
 306 00d2 370B      		sbc r19,r23
 307               	.LVL27:
 308               	.LSM25:
 309 00d4 2032      		cpi r18,32
 310 00d6 3105      		cpc r19,__zero_reg__
 311 00d8 00F0      		brlo .L17
 312               	.LSM26:
 313 00da 2034      		cpi r18,64
 314 00dc 3105      		cpc r19,__zero_reg__
 315 00de 00F4      		brsh .L11
 316 00e0 2052      		subi r18,lo8(-(-32))
 317 00e2 3040      		sbci r19,hi8(-(-32))
 318               	.LVL28:
 319 00e4 F601      		movw r30,r12
 320 00e6 00C0      		rjmp 2f
 321 00e8 EE0F      	1:	lsl r30
 322 00ea FF1F      		rol r31
 323 00ec 2A95      	2:	dec r18
 324 00ee 02F4      		brpl 1b
 325 00f0 9F01      		movw r18,r30
 326               	.LVL29:
 327 00f2 4427      		clr r20
 328 00f4 37FD      		sbrc r19,7
 329 00f6 4095      		com r20
 330 00f8 542F      		mov r21,r20
 331 00fa E22A      		or r14,r18
 332 00fc F32A      		or r15,r19
 333 00fe 042B      		or r16,r20
 334 0100 152B      		or r17,r21
 335               	.LVL30:
 336 0102 00C0      		rjmp .L11
 337               	.LVL31:
 338               	.L16:
 339               	.LBE5:
 340               	.LSM27:
 341 0104 5701      		movw r10,r14
 342 0106 6801      		movw r12,r16
 343               	.LVL32:
 344 0108 9701      		movw r18,r14
 345 010a A601      		movw r20,r12
 346 010c 60E0      		ldi r22,lo8(0)
 347               	.LVL33:
 348 010e 70E0      		ldi r23,lo8(0)
 349 0110 80E0      		ldi r24,lo8(0)
 350               	.LVL34:
 351 0112 90E0      		ldi r25,lo8(0)
 352 0114 00E2      		ldi r16,lo8(32)
 353 0116 0E94 0000 		call __ashldi3
 354               	.LVL35:
 355 011a F901      		movw r30,r18
 356 011c DA01      		movw r26,r20
 357 011e E62E      		mov r14,r22
 358               	.LVL36:
 359 0120 9301      		movw r18,r6
 360 0122 8201      		movw r16,r4
 361 0124 E429      		or r30,r4
 362 0126 F12B      		or r31,r17
 363 0128 A22B      		or r26,r18
 364 012a B32B      		or r27,r19
 365               	.LVL37:
 366               	.L10:
 367               	.LSM28:
 368 012c E401      		movw r28,r8
 369 012e E883      		st Y,r30
 370 0130 F983      		std Y+1,r31
 371 0132 AA83      		std Y+2,r26
 372 0134 BB83      		std Y+3,r27
 373 0136 EC82      		std Y+4,r14
 374 0138 7D83      		std Y+5,r23
 375 013a 8E83      		std Y+6,r24
 376 013c 9F83      		std Y+7,r25
 377               	.LSM29:
 378 013e 81E0      		ldi r24,lo8(1)
 379               	/* epilogue start */
 380 0140 DF91      		pop r29
 381 0142 CF91      		pop r28
 382 0144 1F91      		pop r17
 383 0146 0F91      		pop r16
 384 0148 FF90      		pop r15
 385 014a EF90      		pop r14
 386 014c DF90      		pop r13
 387 014e CF90      		pop r12
 388 0150 BF90      		pop r11
 389 0152 AF90      		pop r10
 390 0154 9F90      		pop r9
 391 0156 8F90      		pop r8
 392               	.LVL38:
 393 0158 7F90      		pop r7
 394 015a 6F90      		pop r6
 395 015c 5F90      		pop r5
 396 015e 4F90      		pop r4
 397 0160 3F90      		pop r3
 398 0162 2F90      		pop r2
 399               	.LVL39:
 400 0164 0895      		ret
 401               	.LVL40:
 402               	.L14:
 403               	.LSM30:
 404 0166 E0E0      		ldi r30,lo8(0)
 405 0168 F0E0      		ldi r31,lo8(0)
 406 016a A0E0      		ldi r26,lo8(0)
 407 016c B0E0      		ldi r27,lo8(0)
 408 016e EE24      		clr r14
 409 0170 70E0      		ldi r23,lo8(0)
 410 0172 80E0      		ldi r24,lo8(0)
 411               	.LVL41:
 412 0174 90E0      		ldi r25,lo8(0)
 413 0176 00C0      		rjmp .L10
 414               	.LFE145:
 416               		.section	.text.CameraControl_DeviceInfo_PrintString,"ax",@progbits
 417               	.global	CameraControl_DeviceInfo_PrintString
 419               	CameraControl_DeviceInfo_PrintString:
 420               	.LFB137:
 421               	.LSM31:
 422               	.LVL42:
 423 0000 DF92      		push r13
 424 0002 EF92      		push r14
 425 0004 FF92      		push r15
 426 0006 0F93      		push r16
 427 0008 1F93      		push r17
 428 000a CF93      		push r28
 429 000c DF93      		push r29
 430               	/* prologue: function */
 431               	/* frame size = 0 */
 432               	/* stack size = 7 */
 433               	.L__stack_usage = 7
 434 000e EC01      		movw r28,r24
 435 0010 8B01      		movw r16,r22
 436               	.LSM32:
 437 0012 E881      		ld r30,Y
 438 0014 F981      		ldd r31,Y+1
 439 0016 D080      		ld r13,Z
 440               	.LVL43:
 441               	.LSM33:
 442 0018 00D0      		rcall .
 443 001a 00D0      		rcall .
 444 001c EDB7      		in r30,__SP_L__
 445 001e FEB7      		in r31,__SP_H__
 446 0020 3196      		adiw r30,1
 447 0022 80E0      		ldi r24,lo8(__c.4865)
 448 0024 90E0      		ldi r25,hi8(__c.4865)
 449               	.LVL44:
 450 0026 ADB7      		in r26,__SP_L__
 451 0028 BEB7      		in r27,__SP_H__
 452 002a 1296      		adiw r26,1+1
 453 002c 9C93      		st X,r25
 454 002e 8E93      		st -X,r24
 455 0030 1197      		sbiw r26,1
 456 0032 D282      		std Z+2,r13
 457 0034 1382      		std Z+3,__zero_reg__
 458 0036 0E94 0000 		call printf_P
 459               	.LVL45:
 460               	.LSM34:
 461 003a 8881      		ld r24,Y
 462 003c 9981      		ldd r25,Y+1
 463 003e 0196      		adiw r24,1
 464 0040 9983      		std Y+1,r25
 465 0042 8883      		st Y,r24
 466 0044 F801      		movw r30,r16
 467 0046 8081      		ld r24,Z
 468 0048 9181      		ldd r25,Z+1
 469 004a 0197      		sbiw r24,1
 470 004c 9183      		std Z+1,r25
 471 004e 8083      		st Z,r24
 472               	.LSM35:
 473 0050 0F90      		pop __tmp_reg__
 474 0052 0F90      		pop __tmp_reg__
 475 0054 0F90      		pop __tmp_reg__
 476 0056 0F90      		pop __tmp_reg__
 477 0058 DD20      		tst r13
 478 005a 01F0      		breq .L19
 479 005c E881      		ld r30,Y
 480 005e F981      		ldd r31,Y+1
 481 0060 30E0      		ldi r19,lo8(__c.4867)
 482 0062 E32E      		mov r14,r19
 483 0064 30E0      		ldi r19,hi8(__c.4867)
 484 0066 F32E      		mov r15,r19
 485               	.L20:
 486               	.LSM36:
 487 0068 00D0      		rcall .
 488 006a 00D0      		rcall .
 489 006c 2DB7      		in r18,__SP_L__
 490 006e 3EB7      		in r19,__SP_H__
 491 0070 2F5F      		subi r18,lo8(-(1))
 492 0072 3F4F      		sbci r19,hi8(-(1))
 493 0074 ADB7      		in r26,__SP_L__
 494 0076 BEB7      		in r27,__SP_H__
 495 0078 1296      		adiw r26,1+1
 496 007a FC92      		st X,r15
 497 007c EE92      		st -X,r14
 498 007e 1197      		sbiw r26,1
 499 0080 8081      		ld r24,Z
 500 0082 F901      		movw r30,r18
 501 0084 8283      		std Z+2,r24
 502 0086 1382      		std Z+3,__zero_reg__
 503 0088 0E94 0000 		call printf_P
 504               	.LSM37:
 505 008c DA94      		dec r13
 506               	.LVL46:
 507 008e D801      		movw r26,r16
 508 0090 8D91      		ld r24,X+
 509 0092 9C91      		ld r25,X
 510 0094 1197      		sbiw r26,1
 511 0096 0297      		sbiw r24,2
 512 0098 1196      		adiw r26,1
 513 009a 9C93      		st X,r25
 514 009c 8E93      		st -X,r24
 515 009e E881      		ld r30,Y
 516 00a0 F981      		ldd r31,Y+1
 517 00a2 3296      		adiw r30,2
 518 00a4 F983      		std Y+1,r31
 519 00a6 E883      		st Y,r30
 520 00a8 0F90      		pop __tmp_reg__
 521 00aa 0F90      		pop __tmp_reg__
 522 00ac 0F90      		pop __tmp_reg__
 523 00ae 0F90      		pop __tmp_reg__
 524 00b0 DD20      		tst r13
 525 00b2 01F4      		brne .L20
 526               	.L19:
 527               	.LSM38:
 528 00b4 81E0      		ldi r24,lo8(1)
 529               	/* epilogue start */
 530 00b6 DF91      		pop r29
 531 00b8 CF91      		pop r28
 532               	.LVL47:
 533 00ba 1F91      		pop r17
 534 00bc 0F91      		pop r16
 535               	.LVL48:
 536 00be FF90      		pop r15
 537 00c0 EF90      		pop r14
 538 00c2 DF90      		pop r13
 539               	.LVL49:
 540 00c4 0895      		ret
 541               	.LFE137:
 543               		.section	.text.CameraControl_DeviceInfo_CopyString,"ax",@progbits
 544               	.global	CameraControl_DeviceInfo_CopyString
 546               	CameraControl_DeviceInfo_CopyString:
 547               	.LFB138:
 548               	.LSM39:
 549               	.LVL50:
 550 0000 0F93      		push r16
 551 0002 1F93      		push r17
 552 0004 CF93      		push r28
 553 0006 DF93      		push r29
 554               	/* prologue: function */
 555               	/* frame size = 0 */
 556               	/* stack size = 4 */
 557               	.L__stack_usage = 4
 558 0008 FC01      		movw r30,r24
 559 000a DB01      		movw r26,r22
 560               	.LSM40:
 561 000c C081      		ld r28,Z
 562 000e D181      		ldd r29,Z+1
 563 0010 1991      		ld r17,Y+
 564               	.LVL51:
 565               	.LSM41:
 566 0012 D183      		std Z+1,r29
 567 0014 C083      		st Z,r28
 568 0016 6D91      		ld r22,X+
 569 0018 7C91      		ld r23,X
 570 001a 1197      		sbiw r26,1
 571               	.LVL52:
 572 001c 6150      		subi r22,lo8(-(-1))
 573 001e 7040      		sbci r23,hi8(-(-1))
 574 0020 1196      		adiw r26,1
 575 0022 7C93      		st X,r23
 576 0024 6E93      		st -X,r22
 577               	.LSM42:
 578 0026 1123      		tst r17
 579 0028 01F4      		brne .+2
 580 002a 00C0      		rjmp .L27
 581               	.LVL53:
 582               	.LSM43:
 583 002c 30E0      		ldi r19,lo8(0)
 584 002e 2150      		subi r18,lo8(-(-1))
 585 0030 3040      		sbci r19,hi8(-(-1))
 586               	.LVL54:
 587 0032 01F4      		brne .+2
 588 0034 00C0      		rjmp .L24
 589 0036 C081      		ld r28,Z
 590 0038 D181      		ldd r29,Z+1
 591               	.LSM44:
 592 003a 00E0      		ldi r16,lo8(0)
 593 003c 80E0      		ldi r24,lo8(0)
 594 003e 90E0      		ldi r25,hi8(0)
 595               	.LVL55:
 596 0040 00C0      		rjmp .L25
 597               	.LVL56:
 598               	.L26:
 599               	.LSM45:
 600 0042 802F      		mov r24,r16
 601 0044 90E0      		ldi r25,lo8(0)
 602 0046 8217      		cp r24,r18
 603 0048 9307      		cpc r25,r19
 604 004a 01F0      		breq .L29
 605               	.LVL57:
 606               	.L25:
 607               	.LSM46:
 608 004c 840F      		add r24,r20
 609 004e 951F      		adc r25,r21
 610 0050 6881      		ld r22,Y
 611 0052 EC01      		movw r28,r24
 612 0054 6883      		st Y,r22
 613               	.LSM47:
 614 0056 1150      		subi r17,lo8(-(-1))
 615               	.LVL58:
 616 0058 8D91      		ld r24,X+
 617 005a 9C91      		ld r25,X
 618 005c 1197      		sbiw r26,1
 619 005e 0297      		sbiw r24,2
 620 0060 1196      		adiw r26,1
 621 0062 9C93      		st X,r25
 622 0064 8E93      		st -X,r24
 623 0066 C081      		ld r28,Z
 624 0068 D181      		ldd r29,Z+1
 625 006a 2296      		adiw r28,2
 626 006c D183      		std Z+1,r29
 627 006e C083      		st Z,r28
 628 0070 0F5F      		subi r16,lo8(-(1))
 629               	.LVL59:
 630 0072 1123      		tst r17
 631 0074 01F4      		brne .L26
 632 0076 6D91      		ld r22,X+
 633 0078 7C91      		ld r23,X
 634 007a 1197      		sbiw r26,1
 635 007c 10E0      		ldi r17,lo8(0)
 636               	.LVL60:
 637 007e 81E0      		ldi r24,lo8(1)
 638 0080 C0E0      		ldi r28,lo8(0)
 639 0082 D0E0      		ldi r29,hi8(0)
 640 0084 20E0      		ldi r18,lo8(0)
 641 0086 30E0      		ldi r19,hi8(0)
 642               	.LVL61:
 643               	.L23:
 644               	.LSM48:
 645 0088 260F      		add r18,r22
 646 008a 371F      		adc r19,r23
 647 008c 1196      		adiw r26,1
 648 008e 3C93      		st X,r19
 649 0090 2E93      		st -X,r18
 650               	.LSM49:
 651 0092 2081      		ld r18,Z
 652 0094 3181      		ldd r19,Z+1
 653 0096 2C0F      		add r18,r28
 654 0098 3D1F      		adc r19,r29
 655 009a 3183      		std Z+1,r19
 656 009c 2083      		st Z,r18
 657               	.LSM50:
 658 009e 400F      		add r20,r16
 659 00a0 511F      		adc r21,r17
 660               	.LVL62:
 661 00a2 FA01      		movw r30,r20
 662               	.LVL63:
 663 00a4 1082      		st Z,__zero_reg__
 664               	/* epilogue start */
 665               	.LSM51:
 666 00a6 DF91      		pop r29
 667 00a8 CF91      		pop r28
 668 00aa 1F91      		pop r17
 669 00ac 0F91      		pop r16
 670 00ae 0895      		ret
 671               	.LVL64:
 672               	.L29:
 673               	.LSM52:
 674 00b0 6D91      		ld r22,X+
 675 00b2 7C91      		ld r23,X
 676 00b4 1197      		sbiw r26,1
 677 00b6 C12F      		mov r28,r17
 678 00b8 D0E0      		ldi r29,lo8(0)
 679 00ba 2227      		clr r18
 680 00bc 3327      		clr r19
 681 00be 2C1B      		sub r18,r28
 682 00c0 3D0B      		sbc r19,r29
 683 00c2 220F      		lsl r18
 684 00c4 331F      		rol r19
 685               	.LVL65:
 686 00c6 CC0F      		lsl r28
 687 00c8 DD1F      		rol r29
 688               	.LVL66:
 689 00ca 8C01      		movw r16,r24
 690 00cc 80E0      		ldi r24,lo8(0)
 691               	.LVL67:
 692 00ce 00C0      		rjmp .L23
 693               	.LVL68:
 694               	.L27:
 695               	.LSM53:
 696 00d0 81E0      		ldi r24,lo8(1)
 697 00d2 00E0      		ldi r16,lo8(0)
 698 00d4 10E0      		ldi r17,hi8(0)
 699 00d6 C0E0      		ldi r28,lo8(0)
 700 00d8 D0E0      		ldi r29,hi8(0)
 701 00da 20E0      		ldi r18,lo8(0)
 702 00dc 30E0      		ldi r19,hi8(0)
 703               	.LVL69:
 704 00de 00C0      		rjmp .L23
 705               	.L24:
 706               	.LSM54:
 707 00e0 C12F      		mov r28,r17
 708 00e2 D0E0      		ldi r29,lo8(0)
 709 00e4 2C1B      		sub r18,r28
 710 00e6 3D0B      		sbc r19,r29
 711 00e8 220F      		lsl r18
 712 00ea 331F      		rol r19
 713 00ec CC0F      		lsl r28
 714 00ee DD1F      		rol r29
 715 00f0 80E0      		ldi r24,lo8(0)
 716 00f2 00E0      		ldi r16,lo8(0)
 717 00f4 10E0      		ldi r17,hi8(0)
 718 00f6 00C0      		rjmp .L23
 719               	.LFE138:
 721               		.section	.text.CameraControl_DeviceInfo_CopyArray,"ax",@progbits
 722               	.global	CameraControl_DeviceInfo_CopyArray
 724               	CameraControl_DeviceInfo_CopyArray:
 725               	.LFB139:
 726               	.LSM55:
 727               	.LVL70:
 728 0000 2F92      		push r2
 729 0002 3F92      		push r3
 730 0004 4F92      		push r4
 731 0006 5F92      		push r5
 732 0008 6F92      		push r6
 733 000a 7F92      		push r7
 734 000c 8F92      		push r8
 735 000e 9F92      		push r9
 736 0010 AF92      		push r10
 737 0012 BF92      		push r11
 738 0014 CF92      		push r12
 739 0016 DF92      		push r13
 740 0018 EF92      		push r14
 741 001a FF92      		push r15
 742 001c 0F93      		push r16
 743 001e 1F93      		push r17
 744 0020 DF93      		push r29
 745 0022 CF93      		push r28
 746 0024 00D0      		rcall .
 747 0026 00D0      		rcall .
 748 0028 00D0      		rcall .
 749 002a CDB7      		in r28,__SP_L__
 750 002c DEB7      		in r29,__SP_H__
 751               	/* prologue: function */
 752               	/* frame size = 6 */
 753               	/* stack size = 24 */
 754               	.L__stack_usage = 24
 755 002e 5C01      		movw r10,r24
 756 0030 7E83      		std Y+6,r23
 757 0032 6D83      		std Y+5,r22
 758 0034 4901      		movw r8,r18
 759               	.LVL71:
 760               	.LSM56:
 761 0036 DC01      		movw r26,r24
 762 0038 2D91      		ld r18,X+
 763 003a 3C91      		ld r19,X
 764               	.LVL72:
 765 003c F901      		movw r30,r18
 766 003e 8191      		ld r24,Z+
 767 0040 9191      		ld r25,Z+
 768 0042 A191      		ld r26,Z+
 769 0044 B191      		ld r27,Z+
 770               	.LVL73:
 771 0046 9F01      		movw r18,r30
 772               	.LVL74:
 773               	.LSM57:
 774 0048 F501      		movw r30,r10
 775 004a 3183      		std Z+1,r19
 776 004c 2083      		st Z,r18
 777 004e ED81      		ldd r30,Y+5
 778 0050 FE81      		ldd r31,Y+6
 779 0052 2081      		ld r18,Z
 780 0054 3181      		ldd r19,Z+1
 781 0056 2450      		subi r18,lo8(-(-4))
 782 0058 3040      		sbci r19,hi8(-(-4))
 783 005a 3183      		std Z+1,r19
 784 005c 2083      		st Z,r18
 785               	.LSM58:
 786 005e F401      		movw r30,r8
 787 0060 1082      		st Z,__zero_reg__
 788 0062 1182      		std Z+1,__zero_reg__
 789 0064 1282      		std Z+2,__zero_reg__
 790 0066 1382      		std Z+3,__zero_reg__
 791 0068 1482      		std Z+4,__zero_reg__
 792 006a 1582      		std Z+5,__zero_reg__
 793 006c 1682      		std Z+6,__zero_reg__
 794 006e 1782      		std Z+7,__zero_reg__
 795               	.LSM59:
 796 0070 0097      		sbiw r24,0
 797 0072 A105      		cpc r26,__zero_reg__
 798 0074 B105      		cpc r27,__zero_reg__
 799 0076 01F4      		brne .+2
 800 0078 00C0      		rjmp .L35
 801 007a 642F      		mov r22,r20
 802               	.LVL75:
 803 007c 70E0      		ldi r23,lo8(0)
 804               	.LSM60:
 805 007e 4424      		clr r4
 806 0080 5524      		clr r5
 807 0082 3201      		movw r6,r4
 808               	.LSM61:
 809 0084 1982      		std Y+1,__zero_reg__
 810 0086 1A82      		std Y+2,__zero_reg__
 811 0088 1B82      		std Y+3,__zero_reg__
 812 008a 1C82      		std Y+4,__zero_reg__
 813 008c 00C0      		rjmp .L34
 814               	.LVL76:
 815               	.L38:
 816               	.LBB6:
 817               	.LSM62:
 818 008e 41E0      		ldi r20,lo8(1)
 819 0090 C42E      		mov r12,r20
 820 0092 D12C      		mov r13,__zero_reg__
 821 0094 00C0      		rjmp 2f
 822 0096 CC0C      	1:	lsl r12
 823 0098 DD1C      		rol r13
 824 009a 2A95      	2:	dec r18
 825 009c 02F4      		brpl 1b
 826 009e 9601      		movw r18,r12
 827               	.LVL77:
 828 00a0 4427      		clr r20
 829 00a2 37FD      		sbrc r19,7
 830 00a4 4095      		com r20
 831 00a6 542F      		mov r21,r20
 832 00a8 422A      		or r4,r18
 833 00aa 532A      		or r5,r19
 834 00ac 642A      		or r6,r20
 835 00ae 752A      		or r7,r21
 836               	.LVL78:
 837               	.L32:
 838               	.LBE6:
 839               	.LSM63:
 840 00b0 0197      		sbiw r24,1
 841 00b2 A109      		sbc r26,__zero_reg__
 842 00b4 B109      		sbc r27,__zero_reg__
 843               	.LVL79:
 844 00b6 260E      		add r2,r22
 845 00b8 371E      		adc r3,r23
 846               	.LVL80:
 847 00ba F501      		movw r30,r10
 848               	.LVL81:
 849 00bc 3182      		std Z+1,r3
 850 00be 2082      		st Z,r2
 851 00c0 ED81      		ldd r30,Y+5
 852 00c2 FE81      		ldd r31,Y+6
 853 00c4 2081      		ld r18,Z
 854 00c6 3181      		ldd r19,Z+1
 855 00c8 261B      		sub r18,r22
 856 00ca 370B      		sbc r19,r23
 857 00cc 3183      		std Z+1,r19
 858 00ce 2083      		st Z,r18
 859 00d0 0097      		sbiw r24,0
 860 00d2 A105      		cpc r26,__zero_reg__
 861 00d4 B105      		cpc r27,__zero_reg__
 862 00d6 01F0      		breq .L37
 863               	.LVL82:
 864               	.L34:
 865               	.LBB7:
 866               	.LSM64:
 867 00d8 F501      		movw r30,r10
 868 00da 2080      		ld r2,Z
 869 00dc 3180      		ldd r3,Z+1
 870 00de F101      		movw r30,r2
 871 00e0 2081      		ld r18,Z
 872 00e2 3181      		ldd r19,Z+1
 873               	.LVL83:
 874               	.LSM65:
 875 00e4 2017      		cp r18,r16
 876 00e6 3107      		cpc r19,r17
 877 00e8 00F0      		brlo .L32
 878               	.LSM66:
 879 00ea 201B      		sub r18,r16
 880 00ec 310B      		sbc r19,r17
 881               	.LVL84:
 882               	.LSM67:
 883 00ee 2032      		cpi r18,32
 884 00f0 3105      		cpc r19,__zero_reg__
 885 00f2 00F0      		brlo .L38
 886               	.LSM68:
 887 00f4 2034      		cpi r18,64
 888 00f6 3105      		cpc r19,__zero_reg__
 889 00f8 00F4      		brsh .L32
 890               	.LSM69:
 891 00fa 2052      		subi r18,lo8(-(-32))
 892 00fc 3040      		sbci r19,hi8(-(-32))
 893               	.LVL85:
 894 00fe 31E0      		ldi r19,lo8(1)
 895 0100 E32E      		mov r14,r19
 896 0102 F12C      		mov r15,__zero_reg__
 897 0104 00C0      		rjmp 2f
 898 0106 EE0C      	1:	lsl r14
 899 0108 FF1C      		rol r15
 900 010a 2A95      	2:	dec r18
 901 010c 02F4      		brpl 1b
 902 010e 9701      		movw r18,r14
 903               	.LVL86:
 904 0110 4427      		clr r20
 905 0112 37FD      		sbrc r19,7
 906 0114 4095      		com r20
 907 0116 542F      		mov r21,r20
 908 0118 C980      		ldd r12,Y+1
 909 011a DA80      		ldd r13,Y+2
 910 011c EB80      		ldd r14,Y+3
 911 011e FC80      		ldd r15,Y+4
 912 0120 C22A      		or r12,r18
 913 0122 D32A      		or r13,r19
 914 0124 E42A      		or r14,r20
 915 0126 F52A      		or r15,r21
 916 0128 C982      		std Y+1,r12
 917 012a DA82      		std Y+2,r13
 918 012c EB82      		std Y+3,r14
 919 012e FC82      		std Y+4,r15
 920               	.LVL87:
 921 0130 00C0      		rjmp .L32
 922               	.LVL88:
 923               	.L37:
 924               	.LBE7:
 925               	.LSM70:
 926 0132 8981      		ldd r24,Y+1
 927 0134 9A81      		ldd r25,Y+2
 928 0136 AB81      		ldd r26,Y+3
 929 0138 BC81      		ldd r27,Y+4
 930               	.LVL89:
 931 013a 5C01      		movw r10,r24
 932 013c 6D01      		movw r12,r26
 933               	.LVL90:
 934 013e 9C01      		movw r18,r24
 935 0140 A601      		movw r20,r12
 936 0142 60E0      		ldi r22,lo8(0)
 937               	.LVL91:
 938 0144 70E0      		ldi r23,lo8(0)
 939 0146 80E0      		ldi r24,lo8(0)
 940 0148 90E0      		ldi r25,lo8(0)
 941 014a 00E2      		ldi r16,lo8(32)
 942               	.LVL92:
 943 014c 0E94 0000 		call __ashldi3
 944               	.LVL93:
 945 0150 222E      		mov r2,r18
 946 0152 F32E      		mov r15,r19
 947 0154 DA01      		movw r26,r20
 948 0156 E62E      		mov r14,r22
 949 0158 9301      		movw r18,r6
 950 015a 8201      		movw r16,r4
 951 015c 2428      		or r2,r4
 952 015e F12A      		or r15,r17
 953 0160 A22B      		or r26,r18
 954 0162 B32B      		or r27,r19
 955               	.LVL94:
 956               	.L31:
 957               	.LSM71:
 958 0164 F401      		movw r30,r8
 959 0166 2082      		st Z,r2
 960 0168 F182      		std Z+1,r15
 961 016a A283      		std Z+2,r26
 962 016c B383      		std Z+3,r27
 963 016e E482      		std Z+4,r14
 964 0170 7583      		std Z+5,r23
 965 0172 8683      		std Z+6,r24
 966 0174 9783      		std Z+7,r25
 967               	.LSM72:
 968 0176 81E0      		ldi r24,lo8(1)
 969               	/* epilogue start */
 970 0178 2696      		adiw r28,6
 971 017a 0FB6      		in __tmp_reg__,__SREG__
 972 017c F894      		cli
 973 017e DEBF      		out __SP_H__,r29
 974 0180 0FBE      		out __SREG__,__tmp_reg__
 975 0182 CDBF      		out __SP_L__,r28
 976               	.LVL95:
 977 0184 CF91      		pop r28
 978 0186 DF91      		pop r29
 979               	.LVL96:
 980 0188 1F91      		pop r17
 981 018a 0F91      		pop r16
 982 018c FF90      		pop r15
 983 018e EF90      		pop r14
 984 0190 DF90      		pop r13
 985 0192 CF90      		pop r12
 986 0194 BF90      		pop r11
 987 0196 AF90      		pop r10
 988 0198 9F90      		pop r9
 989 019a 8F90      		pop r8
 990               	.LVL97:
 991 019c 7F90      		pop r7
 992 019e 6F90      		pop r6
 993 01a0 5F90      		pop r5
 994 01a2 4F90      		pop r4
 995 01a4 3F90      		pop r3
 996 01a6 2F90      		pop r2
 997 01a8 0895      		ret
 998               	.LVL98:
 999               	.L35:
 1000               	.LSM73:
 1001 01aa 2224      		clr r2
 1002 01ac FF24      		clr r15
 1003 01ae A0E0      		ldi r26,lo8(0)
 1004 01b0 B0E0      		ldi r27,lo8(0)
 1005 01b2 EE24      		clr r14
 1006 01b4 70E0      		ldi r23,lo8(0)
 1007 01b6 80E0      		ldi r24,lo8(0)
 1008               	.LVL99:
 1009 01b8 90E0      		ldi r25,lo8(0)
 1010 01ba 00C0      		rjmp .L31
 1011               	.LFE139:
 1013               		.section	.text.CameraControl_DeviceInfo_PrintArray,"ax",@progbits
 1014               	.global	CameraControl_DeviceInfo_PrintArray
 1016               	CameraControl_DeviceInfo_PrintArray:
 1017               	.LFB140:
 1018               	.LSM74:
 1019               	.LVL100:
 1020 0000 8F92      		push r8
 1021 0002 9F92      		push r9
 1022 0004 AF92      		push r10
 1023 0006 BF92      		push r11
 1024 0008 CF92      		push r12
 1025 000a DF92      		push r13
 1026 000c EF92      		push r14
 1027 000e FF92      		push r15
 1028 0010 0F93      		push r16
 1029 0012 1F93      		push r17
 1030 0014 CF93      		push r28
 1031 0016 DF93      		push r29
 1032               	/* prologue: function */
 1033               	/* frame size = 0 */
 1034               	/* stack size = 12 */
 1035               	.L__stack_usage = 12
 1036 0018 EC01      		movw r28,r24
 1037 001a 6B01      		movw r12,r22
 1038 001c A42E      		mov r10,r20
 1039               	.LSM75:
 1040 001e E881      		ld r30,Y
 1041 0020 F981      		ldd r31,Y+1
 1042 0022 E080      		ld r14,Z
 1043 0024 F180      		ldd r15,Z+1
 1044 0026 0281      		ldd r16,Z+2
 1045 0028 1381      		ldd r17,Z+3
 1046               	.LVL101:
 1047               	.LSM76:
 1048 002a 00D0      		rcall .
 1049 002c 00D0      		rcall .
 1050 002e 00D0      		rcall .
 1051 0030 80E0      		ldi r24,lo8(__c.4905)
 1052 0032 90E0      		ldi r25,hi8(__c.4905)
 1053               	.LVL102:
 1054 0034 EDB7      		in r30,__SP_L__
 1055 0036 FEB7      		in r31,__SP_H__
 1056 0038 9283      		std Z+2,r25
 1057 003a 8183      		std Z+1,r24
 1058 003c E382      		std Z+3,r14
 1059 003e F482      		std Z+4,r15
 1060 0040 0583      		std Z+5,r16
 1061 0042 1683      		std Z+6,r17
 1062 0044 0E94 0000 		call printf_P
 1063               	.LVL103:
 1064               	.LSM77:
 1065 0048 8881      		ld r24,Y
 1066 004a 9981      		ldd r25,Y+1
 1067 004c 0496      		adiw r24,4
 1068 004e 9983      		std Y+1,r25
 1069 0050 8883      		st Y,r24
 1070 0052 F601      		movw r30,r12
 1071 0054 8081      		ld r24,Z
 1072 0056 9181      		ldd r25,Z+1
 1073 0058 0497      		sbiw r24,4
 1074 005a 9183      		std Z+1,r25
 1075 005c 8083      		st Z,r24
 1076               	.LSM78:
 1077 005e 8DB7      		in r24,__SP_L__
 1078 0060 9EB7      		in r25,__SP_H__
 1079 0062 0696      		adiw r24,6
 1080 0064 0FB6      		in __tmp_reg__,__SREG__
 1081 0066 F894      		cli
 1082 0068 9EBF      		out __SP_H__,r25
 1083 006a 0FBE      		out __SREG__,__tmp_reg__
 1084 006c 8DBF      		out __SP_L__,r24
 1085 006e E114      		cp r14,__zero_reg__
 1086 0070 F104      		cpc r15,__zero_reg__
 1087 0072 0105      		cpc r16,__zero_reg__
 1088 0074 1105      		cpc r17,__zero_reg__
 1089 0076 01F0      		breq .L40
 1090 0078 BB24      		clr r11
 1091 007a 50E0      		ldi r21,lo8(__c.4907)
 1092 007c 852E      		mov r8,r21
 1093 007e 50E0      		ldi r21,hi8(__c.4907)
 1094 0080 952E      		mov r9,r21
 1095               	.L41:
 1096               	.LSM79:
 1097 0082 00D0      		rcall .
 1098 0084 00D0      		rcall .
 1099 0086 EDB7      		in r30,__SP_L__
 1100 0088 FEB7      		in r31,__SP_H__
 1101 008a 9282      		std Z+2,r9
 1102 008c 8182      		std Z+1,r8
 1103 008e E881      		ld r30,Y
 1104 0090 F981      		ldd r31,Y+1
 1105 0092 8081      		ld r24,Z
 1106 0094 9181      		ldd r25,Z+1
 1107 0096 EDB7      		in r30,__SP_L__
 1108 0098 FEB7      		in r31,__SP_H__
 1109 009a 9483      		std Z+4,r25
 1110 009c 8383      		std Z+3,r24
 1111 009e 0E94 0000 		call printf_P
 1112               	.LSM80:
 1113 00a2 0894      		sec
 1114 00a4 E108      		sbc r14,__zero_reg__
 1115 00a6 F108      		sbc r15,__zero_reg__
 1116 00a8 0109      		sbc r16,__zero_reg__
 1117 00aa 1109      		sbc r17,__zero_reg__
 1118               	.LVL104:
 1119 00ac 8881      		ld r24,Y
 1120 00ae 9981      		ldd r25,Y+1
 1121 00b0 8A0D      		add r24,r10
 1122 00b2 9B1D      		adc r25,r11
 1123 00b4 9983      		std Y+1,r25
 1124 00b6 8883      		st Y,r24
 1125 00b8 F601      		movw r30,r12
 1126 00ba 8081      		ld r24,Z
 1127 00bc 9181      		ldd r25,Z+1
 1128 00be 8A19      		sub r24,r10
 1129 00c0 9B09      		sbc r25,r11
 1130 00c2 9183      		std Z+1,r25
 1131 00c4 8083      		st Z,r24
 1132 00c6 0F90      		pop __tmp_reg__
 1133 00c8 0F90      		pop __tmp_reg__
 1134 00ca 0F90      		pop __tmp_reg__
 1135 00cc 0F90      		pop __tmp_reg__
 1136 00ce E114      		cp r14,__zero_reg__
 1137 00d0 F104      		cpc r15,__zero_reg__
 1138 00d2 0105      		cpc r16,__zero_reg__
 1139 00d4 1105      		cpc r17,__zero_reg__
 1140 00d6 01F4      		brne .L41
 1141               	.L40:
 1142               	.LSM81:
 1143 00d8 81E0      		ldi r24,lo8(1)
 1144               	/* epilogue start */
 1145 00da DF91      		pop r29
 1146 00dc CF91      		pop r28
 1147               	.LVL105:
 1148 00de 1F91      		pop r17
 1149 00e0 0F91      		pop r16
 1150 00e2 FF90      		pop r15
 1151 00e4 EF90      		pop r14
 1152               	.LVL106:
 1153 00e6 DF90      		pop r13
 1154 00e8 CF90      		pop r12
 1155               	.LVL107:
 1156 00ea BF90      		pop r11
 1157 00ec AF90      		pop r10
 1158               	.LVL108:
 1159 00ee 9F90      		pop r9
 1160 00f0 8F90      		pop r8
 1161 00f2 0895      		ret
 1162               	.LFE140:
 1164               		.section	.text.CameraControl_DeviceInfo_Parse,"ax",@progbits
 1165               	.global	CameraControl_DeviceInfo_Parse
 1167               	CameraControl_DeviceInfo_Parse:
 1168               	.LFB141:
 1169               	.LSM82:
 1170               	.LVL109:
 1171 0000 EF92      		push r14
 1172 0002 FF92      		push r15
 1173 0004 0F93      		push r16
 1174 0006 1F93      		push r17
 1175 0008 DF93      		push r29
 1176 000a CF93      		push r28
 1177 000c 00D0      		rcall .
 1178 000e 00D0      		rcall .
 1179 0010 CDB7      		in r28,__SP_L__
 1180 0012 DEB7      		in r29,__SP_H__
 1181               	/* prologue: function */
 1182               	/* frame size = 4 */
 1183               	/* stack size = 10 */
 1184               	.L__stack_usage = 10
 1185               	.LSM83:
 1186 0014 9A83      		std Y+2,r25
 1187 0016 8983      		std Y+1,r24
 1188               	.LVL110:
 1189               	.LSM84:
 1190 0018 7C83      		std Y+4,r23
 1191 001a 6B83      		std Y+3,r22
 1192               	.LVL111:
 1193               	.LSM85:
 1194 001c 2091 0000 		lds r18,g_nStage
 1195 0020 2530      		cpi r18,lo8(5)
 1196 0022 01F0      		breq .L77
 1197 0024 2630      		cpi r18,lo8(6)
 1198 0026 00F0      		brlo .L78
 1199 0028 2830      		cpi r18,lo8(8)
 1200 002a 01F4      		brne .+2
 1201 002c 00C0      		rjmp .L79
 1202 002e 2930      		cpi r18,lo8(9)
 1203 0030 00F4      		brsh .+2
 1204 0032 00C0      		rjmp .L80
 1205 0034 2A30      		cpi r18,lo8(10)
 1206 0036 01F4      		brne .+2
 1207 0038 00C0      		rjmp .L81
 1208 003a 2A30      		cpi r18,lo8(10)
 1209 003c 00F4      		brsh .+2
 1210 003e 00C0      		rjmp .L82
 1211 0040 2B30      		cpi r18,lo8(11)
 1212 0042 01F0      		breq .+2
 1213 0044 00C0      		rjmp .L43
 1214 0046 8E01      		movw r16,r28
 1215 0048 0D5F      		subi r16,lo8(-(3))
 1216 004a 1F4F      		sbci r17,hi8(-(3))
 1217 004c 7E01      		movw r14,r28
 1218 004e 0894      		sec
 1219 0050 E11C      		adc r14,__zero_reg__
 1220 0052 F11C      		adc r15,__zero_reg__
 1221 0054 00C0      		rjmp .L56
 1222               	.L78:
 1223 0056 2230      		cpi r18,lo8(2)
 1224 0058 01F4      		brne .+2
 1225 005a 00C0      		rjmp .L83
 1226 005c 2330      		cpi r18,lo8(3)
 1227 005e 00F4      		brsh .+2
 1228 0060 00C0      		rjmp .L84
 1229 0062 2330      		cpi r18,lo8(3)
 1230 0064 01F4      		brne .+2
 1231 0066 00C0      		rjmp .L85
 1232 0068 2430      		cpi r18,lo8(4)
 1233 006a 01F0      		breq .+2
 1234 006c 00C0      		rjmp .L43
 1235 006e 8E01      		movw r16,r28
 1236 0070 0D5F      		subi r16,lo8(-(3))
 1237 0072 1F4F      		sbci r17,hi8(-(3))
 1238 0074 7E01      		movw r14,r28
 1239 0076 0894      		sec
 1240 0078 E11C      		adc r14,__zero_reg__
 1241 007a F11C      		adc r15,__zero_reg__
 1242 007c 00C0      		rjmp .L49
 1243               	.L77:
 1244 007e 8E01      		movw r16,r28
 1245 0080 0D5F      		subi r16,lo8(-(3))
 1246 0082 1F4F      		sbci r17,hi8(-(3))
 1247 0084 7E01      		movw r14,r28
 1248 0086 0894      		sec
 1249 0088 E11C      		adc r14,__zero_reg__
 1250 008a F11C      		adc r15,__zero_reg__
 1251               	.LVL112:
 1252               	.L50:
 1253               	.LSM86:
 1254 008c C801      		movw r24,r16
 1255 008e B701      		movw r22,r14
 1256 0090 40E0      		ldi r20,lo8(g_stDeviceInfo+46)
 1257 0092 50E0      		ldi r21,hi8(g_stDeviceInfo+46)
 1258 0094 20E0      		ldi r18,lo8(20480)
 1259 0096 30E5      		ldi r19,hi8(20480)
 1260 0098 0E94 0000 		call CameraControl_DeviceInfo_CopyArray.clone.1
 1261               	.LSM87:
 1262 009c 8091 0000 		lds r24,g_nStage
 1263 00a0 8F5F      		subi r24,lo8(-(1))
 1264 00a2 8093 0000 		sts g_nStage,r24
 1265               	.L51:
 1266               	.LSM88:
 1267 00a6 C801      		movw r24,r16
 1268 00a8 B701      		movw r22,r14
 1269 00aa 40E0      		ldi r20,lo8(g_stDeviceInfo+54)
 1270 00ac 50E0      		ldi r21,hi8(g_stDeviceInfo+54)
 1271 00ae 20E0      		ldi r18,lo8(12288)
 1272 00b0 30E3      		ldi r19,hi8(12288)
 1273 00b2 0E94 0000 		call CameraControl_DeviceInfo_CopyArray.clone.1
 1274               	.LSM89:
 1275 00b6 8091 0000 		lds r24,g_nStage
 1276 00ba 8F5F      		subi r24,lo8(-(1))
 1277 00bc 8093 0000 		sts g_nStage,r24
 1278               	.L52:
 1279               	.LSM90:
 1280 00c0 C801      		movw r24,r16
 1281 00c2 B701      		movw r22,r14
 1282 00c4 40E0      		ldi r20,lo8(g_stDeviceInfo+62)
 1283 00c6 50E0      		ldi r21,hi8(g_stDeviceInfo+62)
 1284 00c8 20E0      		ldi r18,lo8(14336)
 1285 00ca 38E3      		ldi r19,hi8(14336)
 1286 00cc 0E94 0000 		call CameraControl_DeviceInfo_CopyArray.clone.1
 1287               	.LSM91:
 1288 00d0 8091 0000 		lds r24,g_nStage
 1289 00d4 8F5F      		subi r24,lo8(-(1))
 1290 00d6 8093 0000 		sts g_nStage,r24
 1291               	.L53:
 1292               	.LSM92:
 1293 00da C801      		movw r24,r16
 1294 00dc B701      		movw r22,r14
 1295 00de 40E0      		ldi r20,lo8(g_stDeviceInfo+70)
 1296 00e0 50E0      		ldi r21,hi8(g_stDeviceInfo+70)
 1297 00e2 0E94 0000 		call CameraControl_DeviceInfo_CopyString.clone.0
 1298               	.LSM93:
 1299 00e6 8091 0000 		lds r24,g_nStage
 1300 00ea 8F5F      		subi r24,lo8(-(1))
 1301 00ec 8093 0000 		sts g_nStage,r24
 1302               	.L54:
 1303               	.LSM94:
 1304 00f0 C801      		movw r24,r16
 1305 00f2 B701      		movw r22,r14
 1306 00f4 40E0      		ldi r20,lo8(g_stDeviceInfo+90)
 1307 00f6 50E0      		ldi r21,hi8(g_stDeviceInfo+90)
 1308 00f8 0E94 0000 		call CameraControl_DeviceInfo_CopyString.clone.0
 1309               	.LSM95:
 1310 00fc 8091 0000 		lds r24,g_nStage
 1311 0100 8F5F      		subi r24,lo8(-(1))
 1312 0102 8093 0000 		sts g_nStage,r24
 1313               	.L55:
 1314               	.LSM96:
 1315 0106 C801      		movw r24,r16
 1316 0108 B701      		movw r22,r14
 1317 010a 40E0      		ldi r20,lo8(g_stDeviceInfo+110)
 1318 010c 50E0      		ldi r21,hi8(g_stDeviceInfo+110)
 1319 010e 0E94 0000 		call CameraControl_DeviceInfo_CopyString.clone.0
 1320               	.LSM97:
 1321 0112 8091 0000 		lds r24,g_nStage
 1322 0116 8F5F      		subi r24,lo8(-(1))
 1323 0118 8093 0000 		sts g_nStage,r24
 1324               	.L56:
 1325               	.LSM98:
 1326 011c C801      		movw r24,r16
 1327 011e B701      		movw r22,r14
 1328 0120 40E0      		ldi r20,lo8(g_stDeviceInfo+130)
 1329 0122 50E0      		ldi r21,hi8(g_stDeviceInfo+130)
 1330 0124 0E94 0000 		call CameraControl_DeviceInfo_CopyString.clone.0
 1331               	.LSM99:
 1332 0128 1092 0000 		sts g_nStage,__zero_reg__
 1333               	.L43:
 1334               	/* epilogue start */
 1335               	.LSM100:
 1336 012c 0F90      		pop __tmp_reg__
 1337 012e 0F90      		pop __tmp_reg__
 1338 0130 0F90      		pop __tmp_reg__
 1339 0132 0F90      		pop __tmp_reg__
 1340 0134 CF91      		pop r28
 1341 0136 DF91      		pop r29
 1342 0138 1F91      		pop r17
 1343 013a 0F91      		pop r16
 1344 013c FF90      		pop r15
 1345 013e EF90      		pop r14
 1346 0140 0895      		ret
 1347               	.LVL113:
 1348               	.L80:
 1349               	.LSM101:
 1350 0142 2630      		cpi r18,lo8(6)
 1351 0144 01F4      		brne .+2
 1352 0146 00C0      		rjmp .L86
 1353 0148 2730      		cpi r18,lo8(7)
 1354 014a 01F4      		brne .L43
 1355 014c 8E01      		movw r16,r28
 1356 014e 0D5F      		subi r16,lo8(-(3))
 1357 0150 1F4F      		sbci r17,hi8(-(3))
 1358 0152 7E01      		movw r14,r28
 1359 0154 0894      		sec
 1360 0156 E11C      		adc r14,__zero_reg__
 1361 0158 F11C      		adc r15,__zero_reg__
 1362 015a 00C0      		rjmp .L52
 1363               	.L84:
 1364 015c 2223      		tst r18
 1365 015e 01F4      		brne .+2
 1366 0160 00C0      		rjmp .L45
 1367 0162 2130      		cpi r18,lo8(1)
 1368 0164 01F4      		brne .L43
 1369               	.LVL114:
 1370               	.L46:
 1371               	.LSM102:
 1372 0166 8E01      		movw r16,r28
 1373 0168 0D5F      		subi r16,lo8(-(3))
 1374 016a 1F4F      		sbci r17,hi8(-(3))
 1375 016c C801      		movw r24,r16
 1376 016e 7E01      		movw r14,r28
 1377 0170 0894      		sec
 1378 0172 E11C      		adc r14,__zero_reg__
 1379 0174 F11C      		adc r15,__zero_reg__
 1380 0176 B701      		movw r22,r14
 1381 0178 40E0      		ldi r20,lo8(g_stDeviceInfo+8)
 1382 017a 50E0      		ldi r21,hi8(g_stDeviceInfo+8)
 1383 017c 0E94 0000 		call CameraControl_DeviceInfo_CopyString.clone.0
 1384               	.LVL115:
 1385               	.LSM103:
 1386 0180 8091 0000 		lds r24,g_nStage
 1387 0184 8F5F      		subi r24,lo8(-(1))
 1388 0186 8093 0000 		sts g_nStage,r24
 1389 018a 6B81      		ldd r22,Y+3
 1390 018c 7C81      		ldd r23,Y+4
 1391 018e 8981      		ldd r24,Y+1
 1392 0190 9A81      		ldd r25,Y+2
 1393               	.L47:
 1394               	.LSM104:
 1395 0192 FB01      		movw r30,r22
 1396 0194 2191      		ld r18,Z+
 1397 0196 3191      		ld r19,Z+
 1398 0198 3093 0000 		sts g_stDeviceInfo+28+1,r19
 1399 019c 2093 0000 		sts g_stDeviceInfo+28,r18
 1400               	.LSM105:
 1401 01a0 FC83      		std Y+4,r31
 1402 01a2 EB83      		std Y+3,r30
 1403 01a4 0297      		sbiw r24,2
 1404 01a6 9A83      		std Y+2,r25
 1405 01a8 8983      		std Y+1,r24
 1406               	.LSM106:
 1407 01aa 8091 0000 		lds r24,g_nStage
 1408 01ae 8F5F      		subi r24,lo8(-(1))
 1409 01b0 8093 0000 		sts g_nStage,r24
 1410               	.L48:
 1411               	.LSM107:
 1412 01b4 C801      		movw r24,r16
 1413 01b6 B701      		movw r22,r14
 1414 01b8 40E0      		ldi r20,lo8(g_stDeviceInfo+30)
 1415 01ba 50E0      		ldi r21,hi8(g_stDeviceInfo+30)
 1416 01bc 20E0      		ldi r18,lo8(4096)
 1417 01be 30E1      		ldi r19,hi8(4096)
 1418 01c0 0E94 0000 		call CameraControl_DeviceInfo_CopyArray.clone.1
 1419               	.LSM108:
 1420 01c4 8091 0000 		lds r24,g_nStage
 1421 01c8 8F5F      		subi r24,lo8(-(1))
 1422 01ca 8093 0000 		sts g_nStage,r24
 1423               	.L49:
 1424               	.LSM109:
 1425 01ce C801      		movw r24,r16
 1426 01d0 B701      		movw r22,r14
 1427 01d2 40E0      		ldi r20,lo8(g_stDeviceInfo+38)
 1428 01d4 50E0      		ldi r21,hi8(g_stDeviceInfo+38)
 1429 01d6 20E0      		ldi r18,lo8(16384)
 1430 01d8 30E4      		ldi r19,hi8(16384)
 1431 01da 0E94 0000 		call CameraControl_DeviceInfo_CopyArray.clone.1
 1432               	.LSM110:
 1433 01de 8091 0000 		lds r24,g_nStage
 1434 01e2 8F5F      		subi r24,lo8(-(1))
 1435 01e4 8093 0000 		sts g_nStage,r24
 1436 01e8 00C0      		rjmp .L50
 1437               	.LVL116:
 1438               	.L79:
 1439 01ea 8E01      		movw r16,r28
 1440 01ec 0D5F      		subi r16,lo8(-(3))
 1441 01ee 1F4F      		sbci r17,hi8(-(3))
 1442 01f0 7E01      		movw r14,r28
 1443 01f2 0894      		sec
 1444 01f4 E11C      		adc r14,__zero_reg__
 1445 01f6 F11C      		adc r15,__zero_reg__
 1446 01f8 00C0      		rjmp .L53
 1447               	.L83:
 1448 01fa 8E01      		movw r16,r28
 1449 01fc 0D5F      		subi r16,lo8(-(3))
 1450 01fe 1F4F      		sbci r17,hi8(-(3))
 1451 0200 7E01      		movw r14,r28
 1452 0202 0894      		sec
 1453 0204 E11C      		adc r14,__zero_reg__
 1454 0206 F11C      		adc r15,__zero_reg__
 1455 0208 00C0      		rjmp .L47
 1456               	.L45:
 1457               	.LSM111:
 1458 020a FB01      		movw r30,r22
 1459 020c 2081      		ld r18,Z
 1460 020e 3181      		ldd r19,Z+1
 1461 0210 3093 0000 		sts g_stDeviceInfo+1,r19
 1462 0214 2093 0000 		sts g_stDeviceInfo,r18
 1463               	.LSM112:
 1464 0218 2281      		ldd r18,Z+2
 1465 021a 3381      		ldd r19,Z+3
 1466 021c 4481      		ldd r20,Z+4
 1467 021e 5581      		ldd r21,Z+5
 1468 0220 2093 0000 		sts g_stDeviceInfo+2,r18
 1469 0224 3093 0000 		sts g_stDeviceInfo+2+1,r19
 1470 0228 4093 0000 		sts g_stDeviceInfo+2+2,r20
 1471 022c 5093 0000 		sts g_stDeviceInfo+2+3,r21
 1472               	.LSM113:
 1473 0230 2681      		ldd r18,Z+6
 1474 0232 3781      		ldd r19,Z+7
 1475 0234 3093 0000 		sts g_stDeviceInfo+6+1,r19
 1476 0238 2093 0000 		sts g_stDeviceInfo+6,r18
 1477               	.LSM114:
 1478 023c 685F      		subi r22,lo8(-(8))
 1479 023e 7F4F      		sbci r23,hi8(-(8))
 1480               	.LVL117:
 1481 0240 7C83      		std Y+4,r23
 1482 0242 6B83      		std Y+3,r22
 1483 0244 0897      		sbiw r24,8
 1484               	.LVL118:
 1485 0246 9A83      		std Y+2,r25
 1486 0248 8983      		std Y+1,r24
 1487               	.LSM115:
 1488 024a 8091 0000 		lds r24,g_nStage
 1489 024e 8F5F      		subi r24,lo8(-(1))
 1490 0250 8093 0000 		sts g_nStage,r24
 1491 0254 00C0      		rjmp .L46
 1492               	.L82:
 1493 0256 8E01      		movw r16,r28
 1494 0258 0D5F      		subi r16,lo8(-(3))
 1495 025a 1F4F      		sbci r17,hi8(-(3))
 1496 025c 7E01      		movw r14,r28
 1497 025e 0894      		sec
 1498 0260 E11C      		adc r14,__zero_reg__
 1499 0262 F11C      		adc r15,__zero_reg__
 1500 0264 00C0      		rjmp .L54
 1501               	.L85:
 1502 0266 8E01      		movw r16,r28
 1503 0268 0D5F      		subi r16,lo8(-(3))
 1504 026a 1F4F      		sbci r17,hi8(-(3))
 1505 026c 7E01      		movw r14,r28
 1506 026e 0894      		sec
 1507 0270 E11C      		adc r14,__zero_reg__
 1508 0272 F11C      		adc r15,__zero_reg__
 1509 0274 00C0      		rjmp .L48
 1510               	.L81:
 1511 0276 8E01      		movw r16,r28
 1512 0278 0D5F      		subi r16,lo8(-(3))
 1513 027a 1F4F      		sbci r17,hi8(-(3))
 1514 027c 7E01      		movw r14,r28
 1515 027e 0894      		sec
 1516 0280 E11C      		adc r14,__zero_reg__
 1517 0282 F11C      		adc r15,__zero_reg__
 1518 0284 00C0      		rjmp .L55
 1519               	.L86:
 1520 0286 8E01      		movw r16,r28
 1521 0288 0D5F      		subi r16,lo8(-(3))
 1522 028a 1F4F      		sbci r17,hi8(-(3))
 1523 028c 7E01      		movw r14,r28
 1524 028e 0894      		sec
 1525 0290 E11C      		adc r14,__zero_reg__
 1526 0292 F11C      		adc r15,__zero_reg__
 1527 0294 00C0      		rjmp .L51
 1528               	.LFE141:
 1530               		.section	.text.CameraControl_DeviceInfo_GetInfo,"ax",@progbits
 1531               	.global	CameraControl_DeviceInfo_GetInfo
 1533               	CameraControl_DeviceInfo_GetInfo:
 1534               	.LFB142:
 1535               	.LSM116:
 1536               	.LVL119:
 1537               	/* prologue: function */
 1538               	/* frame size = 0 */
 1539               	/* stack size = 0 */
 1540               	.L__stack_usage = 0
 1541               	.LSM117:
 1542 0000 80E0      		ldi r24,lo8(0)
 1543               	.LVL120:
 1544               	/* epilogue start */
 1545 0002 0895      		ret
 1546               	.LFE142:
 1548               		.section	.text.CameraControl_DeviceInfo_Printout,"ax",@progbits
 1549               	.global	CameraControl_DeviceInfo_Printout
 1551               	CameraControl_DeviceInfo_Printout:
 1552               	.LFB143:
 1553               	.LSM118:
 1554               	.LVL121:
 1555 0000 8F92      		push r8
 1556 0002 9F92      		push r9
 1557 0004 AF92      		push r10
 1558 0006 BF92      		push r11
 1559 0008 CF92      		push r12
 1560 000a DF92      		push r13
 1561 000c EF92      		push r14
 1562 000e FF92      		push r15
 1563 0010 0F93      		push r16
 1564 0012 1F93      		push r17
 1565 0014 CF93      		push r28
 1566 0016 DF93      		push r29
 1567               	/* prologue: function */
 1568               	/* frame size = 0 */
 1569               	/* stack size = 12 */
 1570               	.L__stack_usage = 12
 1571               	.LVL122:
 1572               	.LSM119:
 1573 0018 FC01      		movw r30,r24
 1574 001a 2681      		ldd r18,Z+6
 1575 001c 2223      		tst r18
 1576 001e 01F4      		brne .L89
 1577               	.LSM120:
 1578 0020 8091 0000 		lds r24,g_bQuiteMode
 1579               	.LVL123:
 1580 0024 8823      		tst r24
 1581 0026 01F4      		brne .+2
 1582 0028 00C0      		rjmp .L108
 1583               	.LSM121:
 1584 002a 10E0      		ldi r17,lo8(0)
 1585               	.LVL124:
 1586               	.L90:
 1587               	.LSM122:
 1588 002c 812F      		mov r24,r17
 1589               	/* epilogue start */
 1590 002e DF91      		pop r29
 1591 0030 CF91      		pop r28
 1592 0032 1F91      		pop r17
 1593 0034 0F91      		pop r16
 1594 0036 FF90      		pop r15
 1595 0038 EF90      		pop r14
 1596 003a DF90      		pop r13
 1597 003c CF90      		pop r12
 1598 003e BF90      		pop r11
 1599 0040 AF90      		pop r10
 1600 0042 9F90      		pop r9
 1601 0044 8F90      		pop r8
 1602 0046 0895      		ret
 1603               	.LVL125:
 1604               	.L89:
 1605               	.LSM123:
 1606 0048 2091 0000 		lds r18,g_iDataIsValid
 1607 004c 2223      		tst r18
 1608 004e 01F4      		brne .L91
 1609               	.LSM124:
 1610 0050 0E94 0000 		call CameraControl_DeviceInfo_GetInfo
 1611               	.LVL126:
 1612 0054 182F      		mov r17,r24
 1613               	.LVL127:
 1614               	.LSM125:
 1615 0056 8823      		tst r24
 1616 0058 01F0      		breq .+2
 1617 005a 00C0      		rjmp .L109
 1618               	.LVL128:
 1619               	.L91:
 1620               	.LSM126:
 1621 005c 00D0      		rcall .
 1622 005e 00D0      		rcall .
 1623 0060 80E0      		ldi r24,lo8(__c.4941)
 1624 0062 90E0      		ldi r25,hi8(__c.4941)
 1625 0064 EDB7      		in r30,__SP_L__
 1626 0066 FEB7      		in r31,__SP_H__
 1627 0068 9283      		std Z+2,r25
 1628 006a 8183      		std Z+1,r24
 1629 006c 8091 0000 		lds r24,g_stDeviceInfo
 1630 0070 9091 0000 		lds r25,g_stDeviceInfo+1
 1631 0074 9483      		std Z+4,r25
 1632 0076 8383      		std Z+3,r24
 1633 0078 0E94 0000 		call printf_P
 1634               	.LSM127:
 1635 007c 00D0      		rcall .
 1636 007e 80E0      		ldi r24,lo8(__c.4943)
 1637 0080 90E0      		ldi r25,hi8(__c.4943)
 1638 0082 EDB7      		in r30,__SP_L__
 1639 0084 FEB7      		in r31,__SP_H__
 1640 0086 9283      		std Z+2,r25
 1641 0088 8183      		std Z+1,r24
 1642 008a 8091 0000 		lds r24,g_stDeviceInfo+2
 1643 008e 9091 0000 		lds r25,g_stDeviceInfo+2+1
 1644 0092 A091 0000 		lds r26,g_stDeviceInfo+2+2
 1645 0096 B091 0000 		lds r27,g_stDeviceInfo+2+3
 1646 009a 8383      		std Z+3,r24
 1647 009c 9483      		std Z+4,r25
 1648 009e A583      		std Z+5,r26
 1649 00a0 B683      		std Z+6,r27
 1650 00a2 0E94 0000 		call printf_P
 1651               	.LSM128:
 1652 00a6 0F90      		pop __tmp_reg__
 1653 00a8 0F90      		pop __tmp_reg__
 1654 00aa 80E0      		ldi r24,lo8(__c.4945)
 1655 00ac 90E0      		ldi r25,hi8(__c.4945)
 1656 00ae EDB7      		in r30,__SP_L__
 1657 00b0 FEB7      		in r31,__SP_H__
 1658 00b2 9283      		std Z+2,r25
 1659 00b4 8183      		std Z+1,r24
 1660 00b6 8091 0000 		lds r24,g_stDeviceInfo+6
 1661 00ba 9091 0000 		lds r25,g_stDeviceInfo+6+1
 1662 00be 9483      		std Z+4,r25
 1663 00c0 8383      		std Z+3,r24
 1664 00c2 0E94 0000 		call printf_P
 1665               	.LSM129:
 1666 00c6 80E0      		ldi r24,lo8(__c.4947)
 1667 00c8 90E0      		ldi r25,hi8(__c.4947)
 1668 00ca EDB7      		in r30,__SP_L__
 1669 00cc FEB7      		in r31,__SP_H__
 1670 00ce 9283      		std Z+2,r25
 1671 00d0 8183      		std Z+1,r24
 1672 00d2 80E0      		ldi r24,lo8(g_stDeviceInfo+8)
 1673 00d4 90E0      		ldi r25,hi8(g_stDeviceInfo+8)
 1674 00d6 9483      		std Z+4,r25
 1675 00d8 8383      		std Z+3,r24
 1676 00da 0E94 0000 		call printf_P
 1677               	.LSM130:
 1678 00de 80E0      		ldi r24,lo8(__c.4949)
 1679 00e0 90E0      		ldi r25,hi8(__c.4949)
 1680 00e2 EDB7      		in r30,__SP_L__
 1681 00e4 FEB7      		in r31,__SP_H__
 1682 00e6 9283      		std Z+2,r25
 1683 00e8 8183      		std Z+1,r24
 1684 00ea 8091 0000 		lds r24,g_stDeviceInfo+28
 1685 00ee 9091 0000 		lds r25,g_stDeviceInfo+28+1
 1686 00f2 9483      		std Z+4,r25
 1687 00f4 8383      		std Z+3,r24
 1688 00f6 0E94 0000 		call printf_P
 1689               	.LBB8:
 1690               	.LSM131:
 1691 00fa A090 0000 		lds r10,g_stDeviceInfo+30
 1692 00fe B090 0000 		lds r11,g_stDeviceInfo+31
 1693 0102 C090 0000 		lds r12,g_stDeviceInfo+32
 1694 0106 D090 0000 		lds r13,g_stDeviceInfo+33
 1695 010a E090 0000 		lds r14,g_stDeviceInfo+34
 1696 010e F090 0000 		lds r15,g_stDeviceInfo+35
 1697 0112 0091 0000 		lds r16,g_stDeviceInfo+36
 1698 0116 1091 0000 		lds r17,g_stDeviceInfo+37
 1699               	.LVL129:
 1700 011a 0F90      		pop __tmp_reg__
 1701 011c 0F90      		pop __tmp_reg__
 1702 011e 80E0      		ldi r24,lo8(__c.4953)
 1703 0120 90E0      		ldi r25,hi8(__c.4953)
 1704 0122 EDB7      		in r30,__SP_L__
 1705 0124 FEB7      		in r31,__SP_H__
 1706 0126 9283      		std Z+2,r25
 1707 0128 8183      		std Z+1,r24
 1708 012a 0E94 0000 		call printf_P
 1709               	.LVL130:
 1710 012e 0F90      		pop __tmp_reg__
 1711 0130 0F90      		pop __tmp_reg__
 1712 0132 C0E0      		ldi r28,lo8(4096)
 1713 0134 D0E1      		ldi r29,hi8(4096)
 1714 0136 A0E0      		ldi r26,lo8(__c.4955)
 1715 0138 8A2E      		mov r8,r26
 1716 013a A0E0      		ldi r26,hi8(__c.4955)
 1717 013c 9A2E      		mov r9,r26
 1718 013e 00C0      		rjmp .L94
 1719               	.LVL131:
 1720               	.L92:
 1721               	.LSM132:
 1722 0140 2196      		adiw r28,1
 1723 0142 F0E1      		ldi r31,hi8(4160)
 1724 0144 C034      		cpi r28,lo8(4160)
 1725 0146 DF07      		cpc r29,r31
 1726 0148 01F0      		breq .L93
 1727               	.LVL132:
 1728               	.L110:
 1729               	.LSM133:
 1730 014a 9501      		movw r18,r10
 1731 014c A601      		movw r20,r12
 1732 014e B701      		movw r22,r14
 1733 0150 C801      		movw r24,r16
 1734 0152 01E0      		ldi r16,lo8(1)
 1735 0154 0E94 0000 		call __lshrdi3
 1736 0158 5901      		movw r10,r18
 1737 015a 6A01      		movw r12,r20
 1738 015c 7B01      		movw r14,r22
 1739 015e 8C01      		movw r16,r24
 1740               	.L94:
 1741               	.LSM134:
 1742 0160 C501      		movw r24,r10
 1743 0162 8170      		andi r24,lo8(1)
 1744 0164 9070      		andi r25,hi8(1)
 1745 0166 0097      		sbiw r24,0
 1746 0168 01F0      		breq .L92
 1747               	.LSM135:
 1748 016a 00D0      		rcall .
 1749 016c 00D0      		rcall .
 1750 016e EDB7      		in r30,__SP_L__
 1751 0170 FEB7      		in r31,__SP_H__
 1752 0172 9282      		std Z+2,r9
 1753 0174 8182      		std Z+1,r8
 1754 0176 D483      		std Z+4,r29
 1755 0178 C383      		std Z+3,r28
 1756 017a 0E94 0000 		call printf_P
 1757 017e 0F90      		pop __tmp_reg__
 1758 0180 0F90      		pop __tmp_reg__
 1759 0182 0F90      		pop __tmp_reg__
 1760 0184 0F90      		pop __tmp_reg__
 1761               	.LVL133:
 1762 0186 2196      		adiw r28,1
 1763 0188 F0E1      		ldi r31,hi8(4160)
 1764 018a C034      		cpi r28,lo8(4160)
 1765 018c DF07      		cpc r29,r31
 1766 018e 01F4      		brne .L110
 1767               	.LVL134:
 1768               	.L93:
 1769               	.LBE8:
 1770               	.LBB9:
 1771               	.LSM136:
 1772 0190 A090 0000 		lds r10,g_stDeviceInfo+38
 1773 0194 B090 0000 		lds r11,g_stDeviceInfo+39
 1774 0198 C090 0000 		lds r12,g_stDeviceInfo+40
 1775 019c D090 0000 		lds r13,g_stDeviceInfo+41
 1776 01a0 E090 0000 		lds r14,g_stDeviceInfo+42
 1777 01a4 F090 0000 		lds r15,g_stDeviceInfo+43
 1778 01a8 0091 0000 		lds r16,g_stDeviceInfo+44
 1779 01ac 1091 0000 		lds r17,g_stDeviceInfo+45
 1780               	.LVL135:
 1781 01b0 00D0      		rcall .
 1782 01b2 80E0      		ldi r24,lo8(__c.4962)
 1783 01b4 90E0      		ldi r25,hi8(__c.4962)
 1784 01b6 EDB7      		in r30,__SP_L__
 1785 01b8 FEB7      		in r31,__SP_H__
 1786 01ba 9283      		std Z+2,r25
 1787 01bc 8183      		std Z+1,r24
 1788 01be 0E94 0000 		call printf_P
 1789               	.LVL136:
 1790 01c2 0F90      		pop __tmp_reg__
 1791 01c4 0F90      		pop __tmp_reg__
 1792 01c6 C0E0      		ldi r28,lo8(16384)
 1793 01c8 D0E4      		ldi r29,hi8(16384)
 1794 01ca F0E0      		ldi r31,lo8(__c.4964)
 1795 01cc 8F2E      		mov r8,r31
 1796 01ce F0E0      		ldi r31,hi8(__c.4964)
 1797 01d0 9F2E      		mov r9,r31
 1798 01d2 00C0      		rjmp .L97
 1799               	.LVL137:
 1800               	.L95:
 1801               	.LSM137:
 1802 01d4 2196      		adiw r28,1
 1803 01d6 F0E4      		ldi r31,hi8(16448)
 1804 01d8 C034      		cpi r28,lo8(16448)
 1805 01da DF07      		cpc r29,r31
 1806 01dc 01F0      		breq .L96
 1807               	.LVL138:
 1808               	.L111:
 1809               	.LSM138:
 1810 01de 9501      		movw r18,r10
 1811 01e0 A601      		movw r20,r12
 1812 01e2 B701      		movw r22,r14
 1813 01e4 C801      		movw r24,r16
 1814 01e6 01E0      		ldi r16,lo8(1)
 1815 01e8 0E94 0000 		call __lshrdi3
 1816 01ec 5901      		movw r10,r18
 1817 01ee 6A01      		movw r12,r20
 1818 01f0 7B01      		movw r14,r22
 1819 01f2 8C01      		movw r16,r24
 1820               	.L97:
 1821               	.LSM139:
 1822 01f4 C501      		movw r24,r10
 1823 01f6 8170      		andi r24,lo8(1)
 1824 01f8 9070      		andi r25,hi8(1)
 1825 01fa 0097      		sbiw r24,0
 1826 01fc 01F0      		breq .L95
 1827               	.LSM140:
 1828 01fe 00D0      		rcall .
 1829 0200 00D0      		rcall .
 1830 0202 EDB7      		in r30,__SP_L__
 1831 0204 FEB7      		in r31,__SP_H__
 1832 0206 9282      		std Z+2,r9
 1833 0208 8182      		std Z+1,r8
 1834 020a D483      		std Z+4,r29
 1835 020c C383      		std Z+3,r28
 1836 020e 0E94 0000 		call printf_P
 1837 0212 0F90      		pop __tmp_reg__
 1838 0214 0F90      		pop __tmp_reg__
 1839 0216 0F90      		pop __tmp_reg__
 1840 0218 0F90      		pop __tmp_reg__
 1841               	.LVL139:
 1842 021a 2196      		adiw r28,1
 1843 021c F0E4      		ldi r31,hi8(16448)
 1844 021e C034      		cpi r28,lo8(16448)
 1845 0220 DF07      		cpc r29,r31
 1846 0222 01F4      		brne .L111
 1847               	.LVL140:
 1848               	.L96:
 1849               	.LBE9:
 1850               	.LBB10:
 1851               	.LSM141:
 1852 0224 A090 0000 		lds r10,g_stDeviceInfo+46
 1853 0228 B090 0000 		lds r11,g_stDeviceInfo+47
 1854 022c C090 0000 		lds r12,g_stDeviceInfo+48
 1855 0230 D090 0000 		lds r13,g_stDeviceInfo+49
 1856 0234 E090 0000 		lds r14,g_stDeviceInfo+50
 1857 0238 F090 0000 		lds r15,g_stDeviceInfo+51
 1858 023c 0091 0000 		lds r16,g_stDeviceInfo+52
 1859 0240 1091 0000 		lds r17,g_stDeviceInfo+53
 1860               	.LVL141:
 1861 0244 00D0      		rcall .
 1862 0246 80E0      		ldi r24,lo8(__c.4971)
 1863 0248 90E0      		ldi r25,hi8(__c.4971)
 1864 024a EDB7      		in r30,__SP_L__
 1865 024c FEB7      		in r31,__SP_H__
 1866 024e 9283      		std Z+2,r25
 1867 0250 8183      		std Z+1,r24
 1868 0252 0E94 0000 		call printf_P
 1869               	.LVL142:
 1870 0256 0F90      		pop __tmp_reg__
 1871 0258 0F90      		pop __tmp_reg__
 1872 025a C0E0      		ldi r28,lo8(20480)
 1873 025c D0E5      		ldi r29,hi8(20480)
 1874 025e E0E0      		ldi r30,lo8(__c.4973)
 1875 0260 8E2E      		mov r8,r30
 1876 0262 E0E0      		ldi r30,hi8(__c.4973)
 1877 0264 9E2E      		mov r9,r30
 1878 0266 00C0      		rjmp .L100
 1879               	.LVL143:
 1880               	.L98:
 1881               	.LSM142:
 1882 0268 2196      		adiw r28,1
 1883 026a F0E5      		ldi r31,hi8(20544)
 1884 026c C034      		cpi r28,lo8(20544)
 1885 026e DF07      		cpc r29,r31
 1886 0270 01F0      		breq .L99
 1887               	.LVL144:
 1888               	.L112:
 1889               	.LSM143:
 1890 0272 9501      		movw r18,r10
 1891 0274 A601      		movw r20,r12
 1892 0276 B701      		movw r22,r14
 1893 0278 C801      		movw r24,r16
 1894 027a 01E0      		ldi r16,lo8(1)
 1895 027c 0E94 0000 		call __lshrdi3
 1896 0280 5901      		movw r10,r18
 1897 0282 6A01      		movw r12,r20
 1898 0284 7B01      		movw r14,r22
 1899 0286 8C01      		movw r16,r24
 1900               	.L100:
 1901               	.LSM144:
 1902 0288 C501      		movw r24,r10
 1903 028a 8170      		andi r24,lo8(1)
 1904 028c 9070      		andi r25,hi8(1)
 1905 028e 0097      		sbiw r24,0
 1906 0290 01F0      		breq .L98
 1907               	.LSM145:
 1908 0292 00D0      		rcall .
 1909 0294 00D0      		rcall .
 1910 0296 EDB7      		in r30,__SP_L__
 1911 0298 FEB7      		in r31,__SP_H__
 1912 029a 9282      		std Z+2,r9
 1913 029c 8182      		std Z+1,r8
 1914 029e D483      		std Z+4,r29
 1915 02a0 C383      		std Z+3,r28
 1916 02a2 0E94 0000 		call printf_P
 1917 02a6 0F90      		pop __tmp_reg__
 1918 02a8 0F90      		pop __tmp_reg__
 1919 02aa 0F90      		pop __tmp_reg__
 1920 02ac 0F90      		pop __tmp_reg__
 1921               	.LVL145:
 1922 02ae 2196      		adiw r28,1
 1923 02b0 F0E5      		ldi r31,hi8(20544)
 1924 02b2 C034      		cpi r28,lo8(20544)
 1925 02b4 DF07      		cpc r29,r31
 1926 02b6 01F4      		brne .L112
 1927               	.LVL146:
 1928               	.L99:
 1929               	.LBE10:
 1930               	.LBB11:
 1931               	.LSM146:
 1932 02b8 A090 0000 		lds r10,g_stDeviceInfo+54
 1933 02bc B090 0000 		lds r11,g_stDeviceInfo+55
 1934 02c0 C090 0000 		lds r12,g_stDeviceInfo+56
 1935 02c4 D090 0000 		lds r13,g_stDeviceInfo+57
 1936 02c8 E090 0000 		lds r14,g_stDeviceInfo+58
 1937 02cc F090 0000 		lds r15,g_stDeviceInfo+59
 1938 02d0 0091 0000 		lds r16,g_stDeviceInfo+60
 1939 02d4 1091 0000 		lds r17,g_stDeviceInfo+61
 1940               	.LVL147:
 1941 02d8 00D0      		rcall .
 1942 02da 80E0      		ldi r24,lo8(__c.4980)
 1943 02dc 90E0      		ldi r25,hi8(__c.4980)
 1944 02de EDB7      		in r30,__SP_L__
 1945 02e0 FEB7      		in r31,__SP_H__
 1946 02e2 9283      		std Z+2,r25
 1947 02e4 8183      		std Z+1,r24
 1948 02e6 0E94 0000 		call printf_P
 1949               	.LVL148:
 1950 02ea 0F90      		pop __tmp_reg__
 1951 02ec 0F90      		pop __tmp_reg__
 1952 02ee C0E0      		ldi r28,lo8(12288)
 1953 02f0 D0E3      		ldi r29,hi8(12288)
 1954 02f2 70E0      		ldi r23,lo8(__c.4982)
 1955 02f4 872E      		mov r8,r23
 1956 02f6 70E0      		ldi r23,hi8(__c.4982)
 1957 02f8 972E      		mov r9,r23
 1958 02fa 00C0      		rjmp .L103
 1959               	.LVL149:
 1960               	.L101:
 1961               	.LSM147:
 1962 02fc 2196      		adiw r28,1
 1963 02fe F0E3      		ldi r31,hi8(12352)
 1964 0300 C034      		cpi r28,lo8(12352)
 1965 0302 DF07      		cpc r29,r31
 1966 0304 01F0      		breq .L102
 1967               	.LVL150:
 1968               	.L113:
 1969               	.LSM148:
 1970 0306 9501      		movw r18,r10
 1971 0308 A601      		movw r20,r12
 1972 030a B701      		movw r22,r14
 1973 030c C801      		movw r24,r16
 1974 030e 01E0      		ldi r16,lo8(1)
 1975 0310 0E94 0000 		call __lshrdi3
 1976 0314 5901      		movw r10,r18
 1977 0316 6A01      		movw r12,r20
 1978 0318 7B01      		movw r14,r22
 1979 031a 8C01      		movw r16,r24
 1980               	.L103:
 1981               	.LSM149:
 1982 031c C501      		movw r24,r10
 1983 031e 8170      		andi r24,lo8(1)
 1984 0320 9070      		andi r25,hi8(1)
 1985 0322 0097      		sbiw r24,0
 1986 0324 01F0      		breq .L101
 1987               	.LSM150:
 1988 0326 00D0      		rcall .
 1989 0328 00D0      		rcall .
 1990 032a EDB7      		in r30,__SP_L__
 1991 032c FEB7      		in r31,__SP_H__
 1992 032e 9282      		std Z+2,r9
 1993 0330 8182      		std Z+1,r8
 1994 0332 D483      		std Z+4,r29
 1995 0334 C383      		std Z+3,r28
 1996 0336 0E94 0000 		call printf_P
 1997 033a 0F90      		pop __tmp_reg__
 1998 033c 0F90      		pop __tmp_reg__
 1999 033e 0F90      		pop __tmp_reg__
 2000 0340 0F90      		pop __tmp_reg__
 2001               	.LVL151:
 2002 0342 2196      		adiw r28,1
 2003 0344 F0E3      		ldi r31,hi8(12352)
 2004 0346 C034      		cpi r28,lo8(12352)
 2005 0348 DF07      		cpc r29,r31
 2006 034a 01F4      		brne .L113
 2007               	.LVL152:
 2008               	.L102:
 2009               	.LBE11:
 2010               	.LBB12:
 2011               	.LSM151:
 2012 034c A090 0000 		lds r10,g_stDeviceInfo+62
 2013 0350 B090 0000 		lds r11,g_stDeviceInfo+63
 2014 0354 C090 0000 		lds r12,g_stDeviceInfo+64
 2015 0358 D090 0000 		lds r13,g_stDeviceInfo+65
 2016 035c E090 0000 		lds r14,g_stDeviceInfo+66
 2017 0360 F090 0000 		lds r15,g_stDeviceInfo+67
 2018 0364 0091 0000 		lds r16,g_stDeviceInfo+68
 2019 0368 1091 0000 		lds r17,g_stDeviceInfo+69
 2020               	.LVL153:
 2021 036c 00D0      		rcall .
 2022 036e 80E0      		ldi r24,lo8(__c.4989)
 2023 0370 90E0      		ldi r25,hi8(__c.4989)
 2024 0372 EDB7      		in r30,__SP_L__
 2025 0374 FEB7      		in r31,__SP_H__
 2026 0376 9283      		std Z+2,r25
 2027 0378 8183      		std Z+1,r24
 2028 037a 0E94 0000 		call printf_P
 2029               	.LVL154:
 2030 037e 0F90      		pop __tmp_reg__
 2031 0380 0F90      		pop __tmp_reg__
 2032 0382 C0E0      		ldi r28,lo8(14336)
 2033 0384 D8E3      		ldi r29,hi8(14336)
 2034 0386 60E0      		ldi r22,lo8(__c.4991)
 2035 0388 862E      		mov r8,r22
 2036 038a 60E0      		ldi r22,hi8(__c.4991)
 2037 038c 962E      		mov r9,r22
 2038 038e 00C0      		rjmp .L106
 2039               	.LVL155:
 2040               	.L104:
 2041               	.LSM152:
 2042 0390 2196      		adiw r28,1
 2043 0392 F8E3      		ldi r31,hi8(14400)
 2044 0394 C034      		cpi r28,lo8(14400)
 2045 0396 DF07      		cpc r29,r31
 2046 0398 01F0      		breq .L105
 2047               	.LVL156:
 2048               	.L114:
 2049               	.LSM153:
 2050 039a 9501      		movw r18,r10
 2051 039c A601      		movw r20,r12
 2052 039e B701      		movw r22,r14
 2053 03a0 C801      		movw r24,r16
 2054 03a2 01E0      		ldi r16,lo8(1)
 2055 03a4 0E94 0000 		call __lshrdi3
 2056 03a8 5901      		movw r10,r18
 2057 03aa 6A01      		movw r12,r20
 2058 03ac 7B01      		movw r14,r22
 2059 03ae 8C01      		movw r16,r24
 2060               	.L106:
 2061               	.LSM154:
 2062 03b0 C501      		movw r24,r10
 2063 03b2 8170      		andi r24,lo8(1)
 2064 03b4 9070      		andi r25,hi8(1)
 2065 03b6 0097      		sbiw r24,0
 2066 03b8 01F0      		breq .L104
 2067               	.LSM155:
 2068 03ba 00D0      		rcall .
 2069 03bc 00D0      		rcall .
 2070 03be EDB7      		in r30,__SP_L__
 2071 03c0 FEB7      		in r31,__SP_H__
 2072 03c2 9282      		std Z+2,r9
 2073 03c4 8182      		std Z+1,r8
 2074 03c6 D483      		std Z+4,r29
 2075 03c8 C383      		std Z+3,r28
 2076 03ca 0E94 0000 		call printf_P
 2077 03ce 0F90      		pop __tmp_reg__
 2078 03d0 0F90      		pop __tmp_reg__
 2079 03d2 0F90      		pop __tmp_reg__
 2080 03d4 0F90      		pop __tmp_reg__
 2081               	.LVL157:
 2082 03d6 2196      		adiw r28,1
 2083 03d8 F8E3      		ldi r31,hi8(14400)
 2084 03da C034      		cpi r28,lo8(14400)
 2085 03dc DF07      		cpc r29,r31
 2086 03de 01F4      		brne .L114
 2087               	.LVL158:
 2088               	.L105:
 2089               	.LBE12:
 2090               	.LSM156:
 2091 03e0 00D0      		rcall .
 2092 03e2 00D0      		rcall .
 2093 03e4 80E0      		ldi r24,lo8(__c.4996)
 2094 03e6 90E0      		ldi r25,hi8(__c.4996)
 2095 03e8 EDB7      		in r30,__SP_L__
 2096 03ea FEB7      		in r31,__SP_H__
 2097 03ec 9283      		std Z+2,r25
 2098 03ee 8183      		std Z+1,r24
 2099 03f0 C0E0      		ldi r28,lo8(g_stDeviceInfo+70)
 2100 03f2 D0E0      		ldi r29,hi8(g_stDeviceInfo+70)
 2101 03f4 D483      		std Z+4,r29
 2102 03f6 C383      		std Z+3,r28
 2103 03f8 0E94 0000 		call printf_P
 2104               	.LSM157:
 2105 03fc 80E0      		ldi r24,lo8(__c.4998)
 2106 03fe 90E0      		ldi r25,hi8(__c.4998)
 2107 0400 EDB7      		in r30,__SP_L__
 2108 0402 FEB7      		in r31,__SP_H__
 2109 0404 9283      		std Z+2,r25
 2110 0406 8183      		std Z+1,r24
 2111 0408 CE01      		movw r24,r28
 2112 040a 4496      		adiw r24,20
 2113 040c 9483      		std Z+4,r25
 2114 040e 8383      		std Z+3,r24
 2115 0410 0E94 0000 		call printf_P
 2116               	.LSM158:
 2117 0414 80E0      		ldi r24,lo8(__c.5000)
 2118 0416 90E0      		ldi r25,hi8(__c.5000)
 2119 0418 EDB7      		in r30,__SP_L__
 2120 041a FEB7      		in r31,__SP_H__
 2121 041c 9283      		std Z+2,r25
 2122 041e 8183      		std Z+1,r24
 2123 0420 CE01      		movw r24,r28
 2124 0422 8896      		adiw r24,40
 2125 0424 9483      		std Z+4,r25
 2126 0426 8383      		std Z+3,r24
 2127 0428 0E94 0000 		call printf_P
 2128               	.LSM159:
 2129 042c 80E0      		ldi r24,lo8(__c.5002)
 2130 042e 90E0      		ldi r25,hi8(__c.5002)
 2131 0430 EDB7      		in r30,__SP_L__
 2132 0432 FEB7      		in r31,__SP_H__
 2133 0434 9283      		std Z+2,r25
 2134 0436 8183      		std Z+1,r24
 2135 0438 EC96      		adiw r28,60
 2136 043a D483      		std Z+4,r29
 2137 043c C383      		std Z+3,r28
 2138 043e 0E94 0000 		call printf_P
 2139               	.LSM160:
 2140 0442 0F90      		pop __tmp_reg__
 2141 0444 0F90      		pop __tmp_reg__
 2142 0446 0F90      		pop __tmp_reg__
 2143 0448 0F90      		pop __tmp_reg__
 2144 044a 10E0      		ldi r17,lo8(0)
 2145 044c 00C0      		rjmp .L90
 2146               	.LVL159:
 2147               	.L108:
 2148               	.LSM161:
 2149 044e 00D0      		rcall .
 2150 0450 80E0      		ldi r24,lo8(__c.4937)
 2151 0452 90E0      		ldi r25,hi8(__c.4937)
 2152 0454 EDB7      		in r30,__SP_L__
 2153 0456 FEB7      		in r31,__SP_H__
 2154               	.LVL160:
 2155 0458 9283      		std Z+2,r25
 2156 045a 8183      		std Z+1,r24
 2157 045c 0E94 0000 		call printf_P
 2158 0460 0F90      		pop __tmp_reg__
 2159 0462 0F90      		pop __tmp_reg__
 2160 0464 10E0      		ldi r17,lo8(0)
 2161 0466 00C0      		rjmp .L90
 2162               	.LVL161:
 2163               	.L109:
 2164               	.LSM162:
 2165 0468 00D0      		rcall .
 2166 046a 20E0      		ldi r18,lo8(__c.4939)
 2167 046c 30E0      		ldi r19,hi8(__c.4939)
 2168 046e EDB7      		in r30,__SP_L__
 2169 0470 FEB7      		in r31,__SP_H__
 2170 0472 3283      		std Z+2,r19
 2171 0474 2183      		std Z+1,r18
 2172 0476 0E94 0000 		call printf_P
 2173               	.LSM163:
 2174 047a 0F90      		pop __tmp_reg__
 2175 047c 0F90      		pop __tmp_reg__
 2176 047e 00C0      		rjmp .L90
 2177               	.LFE143:
 2179               		.section	.text.CameraControl_DeviceInfo_Bin,"ax",@progbits
 2180               	.global	CameraControl_DeviceInfo_Bin
 2182               	CameraControl_DeviceInfo_Bin:
 2183               	.LFB144:
 2184               	.LSM164:
 2185               	.LVL162:
 2186 0000 8F92      		push r8
 2187 0002 AF92      		push r10
 2188 0004 BF92      		push r11
 2189 0006 CF92      		push r12
 2190 0008 DF92      		push r13
 2191 000a EF92      		push r14
 2192 000c FF92      		push r15
 2193 000e 0F93      		push r16
 2194 0010 1F93      		push r17
 2195               	/* prologue: function */
 2196               	/* frame size = 0 */
 2197               	/* stack size = 9 */
 2198               	.L__stack_usage = 9
 2199               	.LSM165:
 2200 0012 00D0      		rcall .
 2201 0014 0F92      		push __tmp_reg__
 2202 0016 21EA      		ldi r18,lo8(-95)
 2203 0018 EDB7      		in r30,__SP_L__
 2204 001a FEB7      		in r31,__SP_H__
 2205 001c 2183      		std Z+1,r18
 2206 001e 7383      		std Z+3,r23
 2207 0020 6283      		std Z+2,r22
 2208 0022 61E0      		ldi r22,lo8(4097)
 2209 0024 70E1      		ldi r23,hi8(4097)
 2210               	.LVL163:
 2211 0026 20E0      		ldi r18,lo8(0)
 2212 0028 30E0      		ldi r19,hi8(0)
 2213 002a A901      		movw r20,r18
 2214 002c EE24      		clr r14
 2215 002e FF24      		clr r15
 2216 0030 8701      		movw r16,r14
 2217 0032 AA24      		clr r10
 2218 0034 BB24      		clr r11
 2219 0036 6501      		movw r12,r10
 2220 0038 8824      		clr r8
 2221 003a 0E94 0000 		call CameraControl_GeneralStream_Bin
 2222               	.LVL164:
 2223 003e 0F90      		pop __tmp_reg__
 2224 0040 0F90      		pop __tmp_reg__
 2225 0042 0F90      		pop __tmp_reg__
 2226               	/* epilogue start */
 2227               	.LSM166:
 2228 0044 1F91      		pop r17
 2229 0046 0F91      		pop r16
 2230 0048 FF90      		pop r15
 2231 004a EF90      		pop r14
 2232 004c DF90      		pop r13
 2233 004e CF90      		pop r12
 2234 0050 BF90      		pop r11
 2235 0052 AF90      		pop r10
 2236 0054 8F90      		pop r8
 2237 0056 0895      		ret
 2238               	.LFE144:
 2240               	.global	g_nStage
 2241               	.global	g_nStage
 2242               		.section .bss
 2245               	g_nStage:
 2246 0000 00        		.skip 1,0
 2247               	.global	g_iDataIsValid
 2248               	.global	g_iDataIsValid
 2251               	g_iDataIsValid:
 2252 0001 00        		.skip 1,0
 2253               	.global	g_stDeviceInfo
 2254               	.global	g_stDeviceInfo
 2257               	g_stDeviceInfo:
 2258 0002 0000 0000 		.skip 150,0
 2258      0000 0000 
 2258      0000 0000 
 2258      0000 0000 
 2258      0000 0000 
 2259               		.section	.progmem.data,"a",@progbits
 2262               	__c.5002:
 2263 0000 5365 7269 		.string	"Serial Num.:\t%s\r\n"
 2263      616C 204E 
 2263      756D 2E3A 
 2263      0925 730D 
 2263      0A00 
 2266               	__c.5000:
 2267 0012 4465 7669 		.string	"Device ver.:\t%s\r\n"
 2267      6365 2076 
 2267      6572 2E3A 
 2267      0925 730D 
 2267      0A00 
 2270               	__c.4998:
 2271 0024 4D6F 6465 		.string	"Model:\t\t%s\r\n"
 2271      6C3A 0909 
 2271      2573 0D0A 
 2271      00
 2274               	__c.4996:
 2275 0031 0D0A 4D61 		.string	"\r\nManufacturer:\t%s\r\n"
 2275      6E75 6661 
 2275      6374 7572 
 2275      6572 3A09 
 2275      2573 0D0A 
 2278               	__c.4991:
 2279 0046 0928 2D29 		.string	"\t(-) 0x%04x\r\n"
 2279      2030 7825 
 2279      3034 780D 
 2279      0A00 
 2282               	__c.4989:
 2283 0054 0D0A 496D 		.string	"\r\nImage Formats:\r\n"
 2283      6167 6520 
 2283      466F 726D 
 2283      6174 733A 
 2283      0D0A 00
 2286               	__c.4982:
 2287 0067 0928 2D29 		.string	"\t(-) 0x%04x\r\n"
 2287      2030 7825 
 2287      3034 780D 
 2287      0A00 
 2290               	__c.4980:
 2291 0075 0D0A 4361 		.string	"\r\nCapture formats:\r\n"
 2291      7074 7572 
 2291      6520 666F 
 2291      726D 6174 
 2291      733A 0D0A 
 2294               	__c.4973:
 2295 008a 0928 2D29 		.string	"\t(-) 0x%04x\r\n"
 2295      2030 7825 
 2295      3034 780D 
 2295      0A00 
 2298               	__c.4971:
 2299 0098 0D0A 4465 		.string	"\r\nDevice properties supported:\r\n"
 2299      7669 6365 
 2299      2070 726F 
 2299      7065 7274 
 2299      6965 7320 
 2302               	__c.4964:
 2303 00b9 0928 2D29 		.string	"\t(-) 0x%04x\r\n"
 2303      2030 7825 
 2303      3034 780D 
 2303      0A00 
 2306               	__c.4962:
 2307 00c7 0D0A 4576 		.string	"\r\nEvents supported:\r\n"
 2307      656E 7473 
 2307      2073 7570 
 2307      706F 7274 
 2307      6564 3A0D 
 2310               	__c.4955:
 2311 00dd 0928 2D29 		.string	"\t(-) 0x%04x\r\n"
 2311      2030 7825 
 2311      3034 780D 
 2311      0A00 
 2314               	__c.4953:
 2315 00eb 0D0A 4F70 		.string	"\r\nOperations supported:\r\n"
 2315      6572 6174 
 2315      696F 6E73 
 2315      2073 7570 
 2315      706F 7274 
 2318               	__c.4949:
 2319 0105 4675 6E63 		.string	"Func.Mode:\t%d\r\n"
 2319      2E4D 6F64 
 2319      653A 0925 
 2319      640D 0A00 
 2322               	__c.4947:
 2323 0115 0D0A 5665 		.string	"\r\nVend.Ext.Desc.:\t%s\r\n"
 2323      6E64 2E45 
 2323      7874 2E44 
 2323      6573 632E 
 2323      3A09 2573 
 2326               	__c.4945:
 2327 012c 5665 6E64 		.string	"Vend.Ext.Ver.:\t%d\r\n"
 2327      2E45 7874 
 2327      2E56 6572 
 2327      2E3A 0925 
 2327      640D 0A00 
 2330               	__c.4943:
 2331 0140 5665 6E64 		.string	"Vend.Ext.ID.:\t%d\r\n"
 2331      2E45 7874 
 2331      2E49 442E 
 2331      3A09 2564 
 2331      0D0A 00
 2334               	__c.4941:
 2335 0153 5374 642E 		.string	"Std.Ver.:\t%d\r\n"
 2335      5665 722E 
 2335      3A09 2564 
 2335      0D0A 00
 2338               	__c.4939:
 2339 0162 4572 726F 		.string	"Error reading device info\r\n"
 2339      7220 7265 
 2339      6164 696E 
 2339      6720 6465 
 2339      7669 6365 
 2342               	__c.4937:
 2343 017e 4465 7669 		.string	"Device not connected.\r\n"
 2343      6365 206E 
 2343      6F74 2063 
 2343      6F6E 6E65 
 2343      6374 6564 
 2346               	__c.4907:
 2347 0196 0928 2D29 		.string	"\t(-) 0x%04x\r\n"
 2347      2030 7825 
 2347      3034 780D 
 2347      0A00 
 2350               	__c.4905:
 2351 01a4 0925 6420 		.string	"\t%d values array\r\n"
 2351      7661 6C75 
 2351      6573 2061 
 2351      7272 6179 
 2351      0D0A 00
 2354               	__c.4867:
 2355 01b7 2563 00   		.string	"%c"
 2358               	__c.4865:
 2359 01ba 286C 656E 		.string	"(len.%d)"
 2359      2E25 6429 
 2359      00
 2456               	.Letext0:
DEFINED SYMBOLS
                            *ABS*:00000000 CameraControl_DeviceInfo.c
C:\Users\david\AppData\Local\Temp\ccM5HdJZ.s:2      *ABS*:0000003f __SREG__
C:\Users\david\AppData\Local\Temp\ccM5HdJZ.s:3      *ABS*:0000003e __SP_H__
C:\Users\david\AppData\Local\Temp\ccM5HdJZ.s:4      *ABS*:0000003d __SP_L__
C:\Users\david\AppData\Local\Temp\ccM5HdJZ.s:5      *ABS*:00000034 __CCP__
C:\Users\david\AppData\Local\Temp\ccM5HdJZ.s:6      *ABS*:00000000 __tmp_reg__
C:\Users\david\AppData\Local\Temp\ccM5HdJZ.s:7      *ABS*:00000001 __zero_reg__
C:\Users\david\AppData\Local\Temp\ccM5HdJZ.s:18     .text.CameraControl_DeviceInfo_CopyString.clone.0:00000000 CameraControl_DeviceInfo_CopyString.clone.0
C:\Users\david\AppData\Local\Temp\ccM5HdJZ.s:166    .text.CameraControl_DeviceInfo_CopyArray.clone.1:00000000 CameraControl_DeviceInfo_CopyArray.clone.1
C:\Users\david\AppData\Local\Temp\ccM5HdJZ.s:419    .text.CameraControl_DeviceInfo_PrintString:00000000 CameraControl_DeviceInfo_PrintString
C:\Users\david\AppData\Local\Temp\ccM5HdJZ.s:2358   .progmem.data:000001ba __c.4865
C:\Users\david\AppData\Local\Temp\ccM5HdJZ.s:2354   .progmem.data:000001b7 __c.4867
C:\Users\david\AppData\Local\Temp\ccM5HdJZ.s:546    .text.CameraControl_DeviceInfo_CopyString:00000000 CameraControl_DeviceInfo_CopyString
C:\Users\david\AppData\Local\Temp\ccM5HdJZ.s:724    .text.CameraControl_DeviceInfo_CopyArray:00000000 CameraControl_DeviceInfo_CopyArray
C:\Users\david\AppData\Local\Temp\ccM5HdJZ.s:1016   .text.CameraControl_DeviceInfo_PrintArray:00000000 CameraControl_DeviceInfo_PrintArray
C:\Users\david\AppData\Local\Temp\ccM5HdJZ.s:2350   .progmem.data:000001a4 __c.4905
C:\Users\david\AppData\Local\Temp\ccM5HdJZ.s:2346   .progmem.data:00000196 __c.4907
C:\Users\david\AppData\Local\Temp\ccM5HdJZ.s:1167   .text.CameraControl_DeviceInfo_Parse:00000000 CameraControl_DeviceInfo_Parse
C:\Users\david\AppData\Local\Temp\ccM5HdJZ.s:2245   .bss:00000000 g_nStage
C:\Users\david\AppData\Local\Temp\ccM5HdJZ.s:2257   .bss:00000002 g_stDeviceInfo
C:\Users\david\AppData\Local\Temp\ccM5HdJZ.s:1533   .text.CameraControl_DeviceInfo_GetInfo:00000000 CameraControl_DeviceInfo_GetInfo
C:\Users\david\AppData\Local\Temp\ccM5HdJZ.s:1551   .text.CameraControl_DeviceInfo_Printout:00000000 CameraControl_DeviceInfo_Printout
C:\Users\david\AppData\Local\Temp\ccM5HdJZ.s:2251   .bss:00000001 g_iDataIsValid
C:\Users\david\AppData\Local\Temp\ccM5HdJZ.s:2334   .progmem.data:00000153 __c.4941
C:\Users\david\AppData\Local\Temp\ccM5HdJZ.s:2330   .progmem.data:00000140 __c.4943
C:\Users\david\AppData\Local\Temp\ccM5HdJZ.s:2326   .progmem.data:0000012c __c.4945
C:\Users\david\AppData\Local\Temp\ccM5HdJZ.s:2322   .progmem.data:00000115 __c.4947
C:\Users\david\AppData\Local\Temp\ccM5HdJZ.s:2318   .progmem.data:00000105 __c.4949
C:\Users\david\AppData\Local\Temp\ccM5HdJZ.s:2314   .progmem.data:000000eb __c.4953
C:\Users\david\AppData\Local\Temp\ccM5HdJZ.s:2310   .progmem.data:000000dd __c.4955
C:\Users\david\AppData\Local\Temp\ccM5HdJZ.s:2306   .progmem.data:000000c7 __c.4962
C:\Users\david\AppData\Local\Temp\ccM5HdJZ.s:2302   .progmem.data:000000b9 __c.4964
C:\Users\david\AppData\Local\Temp\ccM5HdJZ.s:2298   .progmem.data:00000098 __c.4971
C:\Users\david\AppData\Local\Temp\ccM5HdJZ.s:2294   .progmem.data:0000008a __c.4973
C:\Users\david\AppData\Local\Temp\ccM5HdJZ.s:2290   .progmem.data:00000075 __c.4980
C:\Users\david\AppData\Local\Temp\ccM5HdJZ.s:2286   .progmem.data:00000067 __c.4982
C:\Users\david\AppData\Local\Temp\ccM5HdJZ.s:2282   .progmem.data:00000054 __c.4989
C:\Users\david\AppData\Local\Temp\ccM5HdJZ.s:2278   .progmem.data:00000046 __c.4991
C:\Users\david\AppData\Local\Temp\ccM5HdJZ.s:2274   .progmem.data:00000031 __c.4996
C:\Users\david\AppData\Local\Temp\ccM5HdJZ.s:2270   .progmem.data:00000024 __c.4998
C:\Users\david\AppData\Local\Temp\ccM5HdJZ.s:2266   .progmem.data:00000012 __c.5000
C:\Users\david\AppData\Local\Temp\ccM5HdJZ.s:2262   .progmem.data:00000000 __c.5002
C:\Users\david\AppData\Local\Temp\ccM5HdJZ.s:2342   .progmem.data:0000017e __c.4937
C:\Users\david\AppData\Local\Temp\ccM5HdJZ.s:2338   .progmem.data:00000162 __c.4939
C:\Users\david\AppData\Local\Temp\ccM5HdJZ.s:2182   .text.CameraControl_DeviceInfo_Bin:00000000 CameraControl_DeviceInfo_Bin

UNDEFINED SYMBOLS
__ashldi3
printf_P
g_bQuiteMode
__lshrdi3
CameraControl_GeneralStream_Bin
__do_clear_bss
