   1               		.file	"CameraControl_DeviceInfo.c"
   2               	__SREG__ = 0x3f
   3               	__SP_H__ = 0x3e
   4               	__SP_L__ = 0x3d
   5               	__CCP__ = 0x34
   6               	__tmp_reg__ = 0
   7               	__zero_reg__ = 1
  15               	.Ltext0:
  16               		.section	.text.CameraControl_DeviceInfo_PrintString,"ax",@progbits
  17               	.global	CameraControl_DeviceInfo_PrintString
  19               	CameraControl_DeviceInfo_PrintString:
  20               	.LFB140:
  21               	.LSM0:
  22               	.LVL0:
  23 0000 DF92      		push r13
  24 0002 EF92      		push r14
  25 0004 FF92      		push r15
  26 0006 0F93      		push r16
  27 0008 1F93      		push r17
  28 000a CF93      		push r28
  29 000c DF93      		push r29
  30               	/* prologue: function */
  31               	/* frame size = 0 */
  32               	/* stack size = 7 */
  33               	.L__stack_usage = 7
  34 000e EC01      		movw r28,r24
  35 0010 8B01      		movw r16,r22
  36               	.LSM1:
  37 0012 E881      		ld r30,Y
  38 0014 F981      		ldd r31,Y+1
  39 0016 D080      		ld r13,Z
  40               	.LVL1:
  41               	.LSM2:
  42 0018 00D0      		rcall .
  43 001a 00D0      		rcall .
  44 001c EDB7      		in r30,__SP_L__
  45 001e FEB7      		in r31,__SP_H__
  46 0020 3196      		adiw r30,1
  47 0022 80E0      		ldi r24,lo8(__c.4450)
  48 0024 90E0      		ldi r25,hi8(__c.4450)
  49               	.LVL2:
  50 0026 ADB7      		in r26,__SP_L__
  51 0028 BEB7      		in r27,__SP_H__
  52 002a 1296      		adiw r26,1+1
  53 002c 9C93      		st X,r25
  54 002e 8E93      		st -X,r24
  55 0030 1197      		sbiw r26,1
  56 0032 D282      		std Z+2,r13
  57 0034 1382      		std Z+3,__zero_reg__
  58 0036 0E94 0000 		call printf_P
  59               	.LVL3:
  60               	.LSM3:
  61 003a 8881      		ld r24,Y
  62 003c 9981      		ldd r25,Y+1
  63 003e 0196      		adiw r24,1
  64 0040 9983      		std Y+1,r25
  65 0042 8883      		st Y,r24
  66 0044 F801      		movw r30,r16
  67 0046 8081      		ld r24,Z
  68 0048 9181      		ldd r25,Z+1
  69 004a 0197      		sbiw r24,1
  70 004c 9183      		std Z+1,r25
  71 004e 8083      		st Z,r24
  72               	.LSM4:
  73 0050 0F90      		pop __tmp_reg__
  74 0052 0F90      		pop __tmp_reg__
  75 0054 0F90      		pop __tmp_reg__
  76 0056 0F90      		pop __tmp_reg__
  77               	.LSM5:
  78 0058 80E0      		ldi r24,lo8(__c.4452)
  79 005a E82E      		mov r14,r24
  80 005c 80E0      		ldi r24,hi8(__c.4452)
  81 005e F82E      		mov r15,r24
  82               	.LSM6:
  83 0060 00C0      		rjmp .L2
  84               	.L3:
  85               	.LSM7:
  86 0062 00D0      		rcall .
  87 0064 00D0      		rcall .
  88 0066 EDB7      		in r30,__SP_L__
  89 0068 FEB7      		in r31,__SP_H__
  90 006a 3196      		adiw r30,1
  91 006c ADB7      		in r26,__SP_L__
  92 006e BEB7      		in r27,__SP_H__
  93 0070 1296      		adiw r26,1+1
  94 0072 FC92      		st X,r15
  95 0074 EE92      		st -X,r14
  96 0076 1197      		sbiw r26,1
  97 0078 A881      		ld r26,Y
  98 007a B981      		ldd r27,Y+1
  99 007c 8C91      		ld r24,X
 100 007e 8283      		std Z+2,r24
 101 0080 1382      		std Z+3,__zero_reg__
 102 0082 0E94 0000 		call printf_P
 103               	.LSM8:
 104 0086 DA94      		dec r13
 105               	.LVL4:
 106 0088 F801      		movw r30,r16
 107 008a 8081      		ld r24,Z
 108 008c 9181      		ldd r25,Z+1
 109 008e 0297      		sbiw r24,2
 110 0090 9183      		std Z+1,r25
 111 0092 8083      		st Z,r24
 112 0094 8881      		ld r24,Y
 113 0096 9981      		ldd r25,Y+1
 114 0098 0296      		adiw r24,2
 115 009a 9983      		std Y+1,r25
 116 009c 8883      		st Y,r24
 117 009e 0F90      		pop __tmp_reg__
 118 00a0 0F90      		pop __tmp_reg__
 119 00a2 0F90      		pop __tmp_reg__
 120 00a4 0F90      		pop __tmp_reg__
 121               	.L2:
 122               	.LSM9:
 123 00a6 DD20      		tst r13
 124 00a8 01F4      		brne .L3
 125               	.LSM10:
 126 00aa 81E0      		ldi r24,lo8(1)
 127               	/* epilogue start */
 128 00ac DF91      		pop r29
 129 00ae CF91      		pop r28
 130               	.LVL5:
 131 00b0 1F91      		pop r17
 132 00b2 0F91      		pop r16
 133               	.LVL6:
 134 00b4 FF90      		pop r15
 135 00b6 EF90      		pop r14
 136 00b8 DF90      		pop r13
 137               	.LVL7:
 138 00ba 0895      		ret
 139               	.LFE140:
 141               		.section	.text.CameraControl_DeviceInfo_CopyString,"ax",@progbits
 142               	.global	CameraControl_DeviceInfo_CopyString
 144               	CameraControl_DeviceInfo_CopyString:
 145               	.LFB141:
 146               	.LSM11:
 147               	.LVL8:
 148 0000 EF92      		push r14
 149 0002 FF92      		push r15
 150 0004 0F93      		push r16
 151 0006 1F93      		push r17
 152 0008 CF93      		push r28
 153 000a DF93      		push r29
 154               	/* prologue: function */
 155               	/* frame size = 0 */
 156               	/* stack size = 6 */
 157               	.L__stack_usage = 6
 158 000c FC01      		movw r30,r24
 159 000e DB01      		movw r26,r22
 160               	.LSM12:
 161 0010 C081      		ld r28,Z
 162 0012 D181      		ldd r29,Z+1
 163 0014 1991      		ld r17,Y+
 164               	.LVL9:
 165               	.LSM13:
 166 0016 D183      		std Z+1,r29
 167 0018 C083      		st Z,r28
 168 001a 8D91      		ld r24,X+
 169 001c 9C91      		ld r25,X
 170 001e 1197      		sbiw r26,1
 171               	.LVL10:
 172 0020 0197      		sbiw r24,1
 173 0022 1196      		adiw r26,1
 174 0024 9C93      		st X,r25
 175 0026 8E93      		st -X,r24
 176 0028 7A01      		movw r14,r20
 177               	.LSM14:
 178 002a 80E0      		ldi r24,lo8(0)
 179 002c 90E0      		ldi r25,hi8(0)
 180               	.LSM15:
 181 002e 30E0      		ldi r19,lo8(0)
 182 0030 2150      		subi r18,lo8(-(-1))
 183 0032 3040      		sbci r19,hi8(-(-1))
 184               	.LVL11:
 185               	.LSM16:
 186 0034 00C0      		rjmp .L5
 187               	.LVL12:
 188               	.L7:
 189               	.LSM17:
 190 0036 8217      		cp r24,r18
 191 0038 9307      		cpc r25,r19
 192 003a 01F0      		breq .L6
 193               	.LSM18:
 194 003c 6081      		ld r22,Z
 195 003e 7181      		ldd r23,Z+1
 196 0040 EB01      		movw r28,r22
 197 0042 6881      		ld r22,Y
 198 0044 E701      		movw r28,r14
 199 0046 6993      		st Y+,r22
 200 0048 7E01      		movw r14,r28
 201               	.LSM19:
 202 004a 1150      		subi r17,lo8(-(-1))
 203               	.LVL13:
 204 004c 6D91      		ld r22,X+
 205 004e 7C91      		ld r23,X
 206 0050 1197      		sbiw r26,1
 207 0052 6250      		subi r22,lo8(-(-2))
 208 0054 7040      		sbci r23,hi8(-(-2))
 209 0056 1196      		adiw r26,1
 210 0058 7C93      		st X,r23
 211 005a 6E93      		st -X,r22
 212 005c 6081      		ld r22,Z
 213 005e 7181      		ldd r23,Z+1
 214 0060 6E5F      		subi r22,lo8(-(2))
 215 0062 7F4F      		sbci r23,hi8(-(2))
 216 0064 7183      		std Z+1,r23
 217 0066 6083      		st Z,r22
 218               	.LVL14:
 219 0068 0196      		adiw r24,1
 220               	.L5:
 221               	.LSM20:
 222 006a 082F      		mov r16,r24
 223               	.LVL15:
 224 006c 1123      		tst r17
 225 006e 01F4      		brne .L7
 226               	.L6:
 227               	.LSM21:
 228 0070 212F      		mov r18,r17
 229 0072 30E0      		ldi r19,lo8(0)
 230 0074 B901      		movw r22,r18
 231 0076 660F      		lsl r22
 232 0078 771F      		rol r23
 233 007a 8D91      		ld r24,X+
 234 007c 9C91      		ld r25,X
 235 007e 1197      		sbiw r26,1
 236               	.LVL16:
 237 0080 861B      		sub r24,r22
 238 0082 970B      		sbc r25,r23
 239 0084 1196      		adiw r26,1
 240 0086 9C93      		st X,r25
 241 0088 8E93      		st -X,r24
 242               	.LSM22:
 243 008a 8081      		ld r24,Z
 244 008c 9181      		ldd r25,Z+1
 245 008e 860F      		add r24,r22
 246 0090 971F      		adc r25,r23
 247 0092 9183      		std Z+1,r25
 248 0094 8083      		st Z,r24
 249               	.LSM23:
 250 0096 400F      		add r20,r16
 251 0098 511D      		adc r21,__zero_reg__
 252               	.LVL17:
 253 009a FA01      		movw r30,r20
 254               	.LVL18:
 255 009c 1082      		st Z,__zero_reg__
 256               	.LSM24:
 257 009e 81E0      		ldi r24,lo8(1)
 258 00a0 1111      		cpse r17,__zero_reg__
 259 00a2 80E0      		ldi r24,lo8(0)
 260               	.L8:
 261               	/* epilogue start */
 262               	.LSM25:
 263 00a4 DF91      		pop r29
 264 00a6 CF91      		pop r28
 265 00a8 1F91      		pop r17
 266               	.LVL19:
 267 00aa 0F91      		pop r16
 268               	.LVL20:
 269 00ac FF90      		pop r15
 270 00ae EF90      		pop r14
 271 00b0 0895      		ret
 272               	.LFE141:
 274               		.section	.text.CameraControl_DeviceInfo_CopyArray,"ax",@progbits
 275               	.global	CameraControl_DeviceInfo_CopyArray
 277               	CameraControl_DeviceInfo_CopyArray:
 278               	.LFB142:
 279               	.LSM26:
 280               	.LVL21:
 281 0000 2F92      		push r2
 282 0002 3F92      		push r3
 283 0004 4F92      		push r4
 284 0006 5F92      		push r5
 285 0008 6F92      		push r6
 286 000a 7F92      		push r7
 287 000c 8F92      		push r8
 288 000e 9F92      		push r9
 289 0010 AF92      		push r10
 290 0012 BF92      		push r11
 291 0014 CF92      		push r12
 292 0016 DF92      		push r13
 293 0018 EF92      		push r14
 294 001a FF92      		push r15
 295 001c 0F93      		push r16
 296 001e 1F93      		push r17
 297 0020 DF93      		push r29
 298 0022 CF93      		push r28
 299 0024 00D0      		rcall .
 300 0026 00D0      		rcall .
 301 0028 CDB7      		in r28,__SP_L__
 302 002a DEB7      		in r29,__SP_H__
 303               	/* prologue: function */
 304               	/* frame size = 4 */
 305               	/* stack size = 22 */
 306               	.L__stack_usage = 22
 307 002c 7C01      		movw r14,r24
 308 002e 7A83      		std Y+2,r23
 309 0030 6983      		std Y+1,r22
 310 0032 3C83      		std Y+4,r19
 311 0034 2B83      		std Y+3,r18
 312               	.LVL22:
 313               	.LSM27:
 314 0036 DC01      		movw r26,r24
 315 0038 2D91      		ld r18,X+
 316 003a 3C91      		ld r19,X
 317               	.LVL23:
 318 003c F901      		movw r30,r18
 319 003e 8191      		ld r24,Z+
 320 0040 9191      		ld r25,Z+
 321 0042 A191      		ld r26,Z+
 322 0044 B191      		ld r27,Z+
 323               	.LVL24:
 324 0046 9F01      		movw r18,r30
 325               	.LVL25:
 326               	.LSM28:
 327 0048 F701      		movw r30,r14
 328 004a 3183      		std Z+1,r19
 329 004c 2083      		st Z,r18
 330 004e E981      		ldd r30,Y+1
 331 0050 FA81      		ldd r31,Y+2
 332 0052 2081      		ld r18,Z
 333 0054 3181      		ldd r19,Z+1
 334 0056 2450      		subi r18,lo8(-(-4))
 335 0058 3040      		sbci r19,hi8(-(-4))
 336 005a 3183      		std Z+1,r19
 337 005c 2083      		st Z,r18
 338               	.LSM29:
 339 005e EB81      		ldd r30,Y+3
 340 0060 FC81      		ldd r31,Y+4
 341 0062 1082      		st Z,__zero_reg__
 342 0064 1182      		std Z+1,__zero_reg__
 343 0066 1282      		std Z+2,__zero_reg__
 344 0068 1382      		std Z+3,__zero_reg__
 345 006a 1482      		std Z+4,__zero_reg__
 346 006c 1582      		std Z+5,__zero_reg__
 347 006e 1682      		std Z+6,__zero_reg__
 348 0070 1782      		std Z+7,__zero_reg__
 349               	.LSM30:
 350 0072 2224      		clr r2
 351 0074 3324      		clr r3
 352 0076 2101      		movw r4,r2
 353               	.LSM31:
 354 0078 AA24      		clr r10
 355 007a BB24      		clr r11
 356 007c 6501      		movw r12,r10
 357               	.LBB6:
 358               	.LSM32:
 359 007e 21E0      		ldi r18,lo8(1)
 360 0080 822E      		mov r8,r18
 361 0082 912C      		mov r9,__zero_reg__
 362               	.LBE6:
 363               	.LSM33:
 364 0084 642E      		mov r6,r20
 365 0086 7724      		clr r7
 366 0088 00C0      		rjmp .L10
 367               	.LVL26:
 368               	.L13:
 369               	.LBB7:
 370               	.LSM34:
 371 008a F701      		movw r30,r14
 372 008c 6081      		ld r22,Z
 373 008e 7181      		ldd r23,Z+1
 374 0090 FB01      		movw r30,r22
 375 0092 2081      		ld r18,Z
 376 0094 3181      		ldd r19,Z+1
 377               	.LVL27:
 378               	.LSM35:
 379 0096 2017      		cp r18,r16
 380 0098 3107      		cpc r19,r17
 381 009a 00F0      		brlo .L11
 382               	.LSM36:
 383 009c 201B      		sub r18,r16
 384 009e 310B      		sbc r19,r17
 385               	.LVL28:
 386               	.LSM37:
 387 00a0 2032      		cpi r18,32
 388 00a2 3105      		cpc r19,__zero_reg__
 389 00a4 00F4      		brsh .L12
 390               	.LSM38:
 391 00a6 A401      		movw r20,r8
 392 00a8 00C0      		rjmp 2f
 393 00aa 440F      	1:	lsl r20
 394 00ac 551F      		rol r21
 395 00ae 2A95      	2:	dec r18
 396 00b0 02F4      		brpl 1b
 397 00b2 9A01      		movw r18,r20
 398               	.LVL29:
 399 00b4 4427      		clr r20
 400 00b6 37FD      		sbrc r19,7
 401 00b8 4095      		com r20
 402 00ba 542F      		mov r21,r20
 403 00bc 222A      		or r2,r18
 404 00be 332A      		or r3,r19
 405 00c0 442A      		or r4,r20
 406 00c2 552A      		or r5,r21
 407               	.LVL30:
 408 00c4 00C0      		rjmp .L11
 409               	.LVL31:
 410               	.L12:
 411               	.LSM39:
 412 00c6 2034      		cpi r18,64
 413 00c8 3105      		cpc r19,__zero_reg__
 414 00ca 00F4      		brsh .L11
 415               	.LSM40:
 416 00cc 2052      		subi r18,lo8(-(-32))
 417 00ce 3040      		sbci r19,hi8(-(-32))
 418               	.LVL32:
 419 00d0 F401      		movw r30,r8
 420 00d2 00C0      		rjmp 2f
 421 00d4 EE0F      	1:	lsl r30
 422 00d6 FF1F      		rol r31
 423 00d8 2A95      	2:	dec r18
 424 00da 02F4      		brpl 1b
 425 00dc 9F01      		movw r18,r30
 426               	.LVL33:
 427 00de 4427      		clr r20
 428 00e0 37FD      		sbrc r19,7
 429 00e2 4095      		com r20
 430 00e4 542F      		mov r21,r20
 431 00e6 A22A      		or r10,r18
 432 00e8 B32A      		or r11,r19
 433 00ea C42A      		or r12,r20
 434 00ec D52A      		or r13,r21
 435               	.LVL34:
 436               	.L11:
 437               	.LBE7:
 438               	.LSM41:
 439 00ee 0197      		sbiw r24,1
 440 00f0 A109      		sbc r26,__zero_reg__
 441 00f2 B109      		sbc r27,__zero_reg__
 442               	.LVL35:
 443 00f4 9B01      		movw r18,r22
 444 00f6 260D      		add r18,r6
 445 00f8 371D      		adc r19,r7
 446 00fa F701      		movw r30,r14
 447 00fc 3183      		std Z+1,r19
 448 00fe 2083      		st Z,r18
 449 0100 E981      		ldd r30,Y+1
 450 0102 FA81      		ldd r31,Y+2
 451 0104 2081      		ld r18,Z
 452 0106 3181      		ldd r19,Z+1
 453 0108 2619      		sub r18,r6
 454 010a 3709      		sbc r19,r7
 455 010c 3183      		std Z+1,r19
 456 010e 2083      		st Z,r18
 457               	.LVL36:
 458               	.L10:
 459               	.LSM42:
 460 0110 0097      		sbiw r24,0
 461 0112 A105      		cpc r26,__zero_reg__
 462 0114 B105      		cpc r27,__zero_reg__
 463 0116 01F0      		breq .+2
 464 0118 00C0      		rjmp .L13
 465               	.LSM43:
 466 011a 9501      		movw r18,r10
 467 011c A601      		movw r20,r12
 468 011e 60E0      		ldi r22,lo8(0)
 469 0120 70E0      		ldi r23,lo8(0)
 470 0122 80E0      		ldi r24,lo8(0)
 471               	.LVL37:
 472 0124 90E0      		ldi r25,lo8(0)
 473 0126 00E2      		ldi r16,lo8(32)
 474               	.LVL38:
 475 0128 0E94 0000 		call __ashldi3
 476 012c 822E      		mov r8,r18
 477 012e 632E      		mov r6,r19
 478               	.LVL39:
 479 0130 DA01      		movw r26,r20
 480 0132 9201      		movw r18,r4
 481 0134 8101      		movw r16,r2
 482 0136 8228      		or r8,r2
 483 0138 EB81      		ldd r30,Y+3
 484 013a FC81      		ldd r31,Y+4
 485 013c 8082      		st Z,r8
 486 013e 612A      		or r6,r17
 487 0140 6182      		std Z+1,r6
 488 0142 A22B      		or r26,r18
 489 0144 A283      		std Z+2,r26
 490 0146 B32B      		or r27,r19
 491 0148 B383      		std Z+3,r27
 492 014a 6483      		std Z+4,r22
 493 014c 7583      		std Z+5,r23
 494 014e 8683      		std Z+6,r24
 495 0150 9783      		std Z+7,r25
 496               	.LSM44:
 497 0152 81E0      		ldi r24,lo8(1)
 498               	/* epilogue start */
 499 0154 0F90      		pop __tmp_reg__
 500 0156 0F90      		pop __tmp_reg__
 501 0158 0F90      		pop __tmp_reg__
 502 015a 0F90      		pop __tmp_reg__
 503               	.LVL40:
 504 015c CF91      		pop r28
 505 015e DF91      		pop r29
 506               	.LVL41:
 507 0160 1F91      		pop r17
 508 0162 0F91      		pop r16
 509 0164 FF90      		pop r15
 510 0166 EF90      		pop r14
 511               	.LVL42:
 512 0168 DF90      		pop r13
 513 016a CF90      		pop r12
 514 016c BF90      		pop r11
 515 016e AF90      		pop r10
 516               	.LVL43:
 517 0170 9F90      		pop r9
 518 0172 8F90      		pop r8
 519 0174 7F90      		pop r7
 520 0176 6F90      		pop r6
 521 0178 5F90      		pop r5
 522 017a 4F90      		pop r4
 523 017c 3F90      		pop r3
 524 017e 2F90      		pop r2
 525               	.LVL44:
 526 0180 0895      		ret
 527               	.LFE142:
 529               		.section	.text.CameraControl_DeviceInfo_PrintArray,"ax",@progbits
 530               	.global	CameraControl_DeviceInfo_PrintArray
 532               	CameraControl_DeviceInfo_PrintArray:
 533               	.LFB143:
 534               	.LSM45:
 535               	.LVL45:
 536 0000 8F92      		push r8
 537 0002 9F92      		push r9
 538 0004 AF92      		push r10
 539 0006 BF92      		push r11
 540 0008 CF92      		push r12
 541 000a DF92      		push r13
 542 000c EF92      		push r14
 543 000e FF92      		push r15
 544 0010 0F93      		push r16
 545 0012 1F93      		push r17
 546 0014 CF93      		push r28
 547 0016 DF93      		push r29
 548               	/* prologue: function */
 549               	/* frame size = 0 */
 550               	/* stack size = 12 */
 551               	.L__stack_usage = 12
 552 0018 EC01      		movw r28,r24
 553 001a 6B01      		movw r12,r22
 554 001c A42E      		mov r10,r20
 555               	.LSM46:
 556 001e E881      		ld r30,Y
 557 0020 F981      		ldd r31,Y+1
 558 0022 E080      		ld r14,Z
 559 0024 F180      		ldd r15,Z+1
 560 0026 0281      		ldd r16,Z+2
 561 0028 1381      		ldd r17,Z+3
 562               	.LVL46:
 563               	.LSM47:
 564 002a 00D0      		rcall .
 565 002c 00D0      		rcall .
 566 002e 00D0      		rcall .
 567 0030 80E0      		ldi r24,lo8(__c.4490)
 568 0032 90E0      		ldi r25,hi8(__c.4490)
 569               	.LVL47:
 570 0034 EDB7      		in r30,__SP_L__
 571 0036 FEB7      		in r31,__SP_H__
 572 0038 9283      		std Z+2,r25
 573 003a 8183      		std Z+1,r24
 574 003c E382      		std Z+3,r14
 575 003e F482      		std Z+4,r15
 576 0040 0583      		std Z+5,r16
 577 0042 1683      		std Z+6,r17
 578 0044 0E94 0000 		call printf_P
 579               	.LVL48:
 580               	.LSM48:
 581 0048 8881      		ld r24,Y
 582 004a 9981      		ldd r25,Y+1
 583 004c 0496      		adiw r24,4
 584 004e 9983      		std Y+1,r25
 585 0050 8883      		st Y,r24
 586 0052 F601      		movw r30,r12
 587 0054 8081      		ld r24,Z
 588 0056 9181      		ldd r25,Z+1
 589 0058 0497      		sbiw r24,4
 590 005a 9183      		std Z+1,r25
 591 005c 8083      		st Z,r24
 592               	.LSM49:
 593 005e 8DB7      		in r24,__SP_L__
 594 0060 9EB7      		in r25,__SP_H__
 595 0062 0696      		adiw r24,6
 596 0064 0FB6      		in __tmp_reg__,__SREG__
 597 0066 F894      		cli
 598 0068 9EBF      		out __SP_H__,r25
 599 006a 0FBE      		out __SREG__,__tmp_reg__
 600 006c 8DBF      		out __SP_L__,r24
 601               	.LSM50:
 602 006e 30E0      		ldi r19,lo8(__c.4492)
 603 0070 832E      		mov r8,r19
 604 0072 30E0      		ldi r19,hi8(__c.4492)
 605 0074 932E      		mov r9,r19
 606               	.LSM51:
 607 0076 BB24      		clr r11
 608 0078 00C0      		rjmp .L15
 609               	.L16:
 610               	.LSM52:
 611 007a 00D0      		rcall .
 612 007c 00D0      		rcall .
 613 007e EDB7      		in r30,__SP_L__
 614 0080 FEB7      		in r31,__SP_H__
 615 0082 9282      		std Z+2,r9
 616 0084 8182      		std Z+1,r8
 617 0086 E881      		ld r30,Y
 618 0088 F981      		ldd r31,Y+1
 619 008a 8081      		ld r24,Z
 620 008c 9181      		ldd r25,Z+1
 621 008e EDB7      		in r30,__SP_L__
 622 0090 FEB7      		in r31,__SP_H__
 623 0092 9483      		std Z+4,r25
 624 0094 8383      		std Z+3,r24
 625 0096 0E94 0000 		call printf_P
 626               	.LSM53:
 627 009a 0894      		sec
 628 009c E108      		sbc r14,__zero_reg__
 629 009e F108      		sbc r15,__zero_reg__
 630 00a0 0109      		sbc r16,__zero_reg__
 631 00a2 1109      		sbc r17,__zero_reg__
 632               	.LVL49:
 633 00a4 8881      		ld r24,Y
 634 00a6 9981      		ldd r25,Y+1
 635 00a8 8A0D      		add r24,r10
 636 00aa 9B1D      		adc r25,r11
 637 00ac 9983      		std Y+1,r25
 638 00ae 8883      		st Y,r24
 639 00b0 F601      		movw r30,r12
 640 00b2 8081      		ld r24,Z
 641 00b4 9181      		ldd r25,Z+1
 642 00b6 8A19      		sub r24,r10
 643 00b8 9B09      		sbc r25,r11
 644 00ba 9183      		std Z+1,r25
 645 00bc 8083      		st Z,r24
 646 00be 0F90      		pop __tmp_reg__
 647 00c0 0F90      		pop __tmp_reg__
 648 00c2 0F90      		pop __tmp_reg__
 649 00c4 0F90      		pop __tmp_reg__
 650               	.L15:
 651               	.LSM54:
 652 00c6 E114      		cp r14,__zero_reg__
 653 00c8 F104      		cpc r15,__zero_reg__
 654 00ca 0105      		cpc r16,__zero_reg__
 655 00cc 1105      		cpc r17,__zero_reg__
 656 00ce 01F4      		brne .L16
 657               	.LSM55:
 658 00d0 81E0      		ldi r24,lo8(1)
 659               	/* epilogue start */
 660 00d2 DF91      		pop r29
 661 00d4 CF91      		pop r28
 662               	.LVL50:
 663 00d6 1F91      		pop r17
 664 00d8 0F91      		pop r16
 665 00da FF90      		pop r15
 666 00dc EF90      		pop r14
 667               	.LVL51:
 668 00de DF90      		pop r13
 669 00e0 CF90      		pop r12
 670               	.LVL52:
 671 00e2 BF90      		pop r11
 672 00e4 AF90      		pop r10
 673               	.LVL53:
 674 00e6 9F90      		pop r9
 675 00e8 8F90      		pop r8
 676 00ea 0895      		ret
 677               	.LFE143:
 679               		.section	.text.CameraControl_DeviceInfo_Parse,"ax",@progbits
 680               	.global	CameraControl_DeviceInfo_Parse
 682               	CameraControl_DeviceInfo_Parse:
 683               	.LFB144:
 684               	.LSM56:
 685               	.LVL54:
 686 0000 0F93      		push r16
 687 0002 1F93      		push r17
 688 0004 DF93      		push r29
 689 0006 CF93      		push r28
 690 0008 00D0      		rcall .
 691 000a 00D0      		rcall .
 692 000c CDB7      		in r28,__SP_L__
 693 000e DEB7      		in r29,__SP_H__
 694               	/* prologue: function */
 695               	/* frame size = 4 */
 696               	/* stack size = 8 */
 697               	.L__stack_usage = 8
 698 0010 FB01      		movw r30,r22
 699               	.LSM57:
 700 0012 9A83      		std Y+2,r25
 701 0014 8983      		std Y+1,r24
 702               	.LVL55:
 703               	.LSM58:
 704 0016 7C83      		std Y+4,r23
 705 0018 6B83      		std Y+3,r22
 706               	.LVL56:
 707               	.LSM59:
 708 001a 2091 0000 		lds r18,g_nStage
 709 001e 2530      		cpi r18,lo8(5)
 710 0020 01F4      		brne .+2
 711 0022 00C0      		rjmp .L24
 712 0024 2630      		cpi r18,lo8(6)
 713 0026 00F4      		brsh .L31
 714 0028 2230      		cpi r18,lo8(2)
 715 002a 01F4      		brne .+2
 716 002c 00C0      		rjmp .L21
 717 002e 2330      		cpi r18,lo8(3)
 718 0030 00F4      		brsh .L32
 719 0032 2223      		tst r18
 720 0034 01F0      		breq .L19
 721 0036 2130      		cpi r18,lo8(1)
 722 0038 01F0      		breq .+2
 723 003a 00C0      		rjmp .L17
 724 003c 00C0      		rjmp .L20
 725               	.L32:
 726 003e 2330      		cpi r18,lo8(3)
 727 0040 01F4      		brne .+2
 728 0042 00C0      		rjmp .L22
 729 0044 2430      		cpi r18,lo8(4)
 730 0046 01F0      		breq .+2
 731 0048 00C0      		rjmp .L17
 732 004a 00C0      		rjmp .L23
 733               	.L31:
 734 004c 2830      		cpi r18,lo8(8)
 735 004e 01F4      		brne .+2
 736 0050 00C0      		rjmp .L27
 737 0052 2930      		cpi r18,lo8(9)
 738 0054 00F4      		brsh .L33
 739 0056 2630      		cpi r18,lo8(6)
 740 0058 01F4      		brne .+2
 741 005a 00C0      		rjmp .L25
 742 005c 2730      		cpi r18,lo8(7)
 743 005e 01F0      		breq .+2
 744 0060 00C0      		rjmp .L17
 745 0062 00C0      		rjmp .L26
 746               	.L33:
 747 0064 2A30      		cpi r18,lo8(10)
 748 0066 01F4      		brne .+2
 749 0068 00C0      		rjmp .L29
 750 006a 2A30      		cpi r18,lo8(10)
 751 006c 00F4      		brsh .+2
 752 006e 00C0      		rjmp .L28
 753 0070 2B30      		cpi r18,lo8(11)
 754 0072 01F0      		breq .+2
 755 0074 00C0      		rjmp .L17
 756 0076 00C0      		rjmp .L30
 757               	.L19:
 758               	.LSM60:
 759 0078 2081      		ld r18,Z
 760 007a 3181      		ldd r19,Z+1
 761 007c 3093 0000 		sts g_stDeviceInfo+1,r19
 762 0080 2093 0000 		sts g_stDeviceInfo,r18
 763               	.LSM61:
 764 0084 2281      		ldd r18,Z+2
 765 0086 3381      		ldd r19,Z+3
 766 0088 4481      		ldd r20,Z+4
 767 008a 5581      		ldd r21,Z+5
 768 008c 2093 0000 		sts g_stDeviceInfo+2,r18
 769 0090 3093 0000 		sts g_stDeviceInfo+2+1,r19
 770 0094 4093 0000 		sts g_stDeviceInfo+2+2,r20
 771 0098 5093 0000 		sts g_stDeviceInfo+2+3,r21
 772               	.LSM62:
 773 009c 2681      		ldd r18,Z+6
 774 009e 3781      		ldd r19,Z+7
 775 00a0 3093 0000 		sts g_stDeviceInfo+6+1,r19
 776 00a4 2093 0000 		sts g_stDeviceInfo+6,r18
 777               	.LSM63:
 778 00a8 3896      		adiw r30,8
 779 00aa FC83      		std Y+4,r31
 780 00ac EB83      		std Y+3,r30
 781 00ae 0897      		sbiw r24,8
 782               	.LVL57:
 783 00b0 9A83      		std Y+2,r25
 784 00b2 8983      		std Y+1,r24
 785               	.LSM64:
 786 00b4 8091 0000 		lds r24,g_nStage
 787 00b8 8F5F      		subi r24,lo8(-(1))
 788 00ba 8093 0000 		sts g_nStage,r24
 789               	.L20:
 790               	.LSM65:
 791 00be CE01      		movw r24,r28
 792 00c0 0396      		adiw r24,3
 793 00c2 BE01      		movw r22,r28
 794               	.LVL58:
 795 00c4 6F5F      		subi r22,lo8(-(1))
 796 00c6 7F4F      		sbci r23,hi8(-(1))
 797 00c8 40E0      		ldi r20,lo8(g_stDeviceInfo+8)
 798 00ca 50E0      		ldi r21,hi8(g_stDeviceInfo+8)
 799 00cc 24E1      		ldi r18,lo8(20)
 800 00ce 0E94 0000 		call CameraControl_DeviceInfo_CopyString
 801               	.LVL59:
 802               	.LSM66:
 803 00d2 8091 0000 		lds r24,g_nStage
 804 00d6 8F5F      		subi r24,lo8(-(1))
 805 00d8 8093 0000 		sts g_nStage,r24
 806               	.L21:
 807               	.LSM67:
 808 00dc EB81      		ldd r30,Y+3
 809 00de FC81      		ldd r31,Y+4
 810 00e0 8191      		ld r24,Z+
 811 00e2 9191      		ld r25,Z+
 812 00e4 9093 0000 		sts g_stDeviceInfo+28+1,r25
 813 00e8 8093 0000 		sts g_stDeviceInfo+28,r24
 814               	.LSM68:
 815 00ec FC83      		std Y+4,r31
 816 00ee EB83      		std Y+3,r30
 817 00f0 8981      		ldd r24,Y+1
 818 00f2 9A81      		ldd r25,Y+2
 819 00f4 0297      		sbiw r24,2
 820 00f6 9A83      		std Y+2,r25
 821 00f8 8983      		std Y+1,r24
 822               	.LSM69:
 823 00fa 8091 0000 		lds r24,g_nStage
 824 00fe 8F5F      		subi r24,lo8(-(1))
 825 0100 8093 0000 		sts g_nStage,r24
 826               	.L22:
 827               	.LSM70:
 828 0104 CE01      		movw r24,r28
 829 0106 0396      		adiw r24,3
 830 0108 BE01      		movw r22,r28
 831 010a 6F5F      		subi r22,lo8(-(1))
 832 010c 7F4F      		sbci r23,hi8(-(1))
 833 010e 42E0      		ldi r20,lo8(2)
 834 0110 20E0      		ldi r18,lo8(g_stDeviceInfo+30)
 835 0112 30E0      		ldi r19,hi8(g_stDeviceInfo+30)
 836 0114 00E0      		ldi r16,lo8(4096)
 837 0116 10E1      		ldi r17,hi8(4096)
 838 0118 0E94 0000 		call CameraControl_DeviceInfo_CopyArray
 839               	.LSM71:
 840 011c 8091 0000 		lds r24,g_nStage
 841 0120 8F5F      		subi r24,lo8(-(1))
 842 0122 8093 0000 		sts g_nStage,r24
 843               	.L23:
 844               	.LSM72:
 845 0126 CE01      		movw r24,r28
 846 0128 0396      		adiw r24,3
 847 012a BE01      		movw r22,r28
 848 012c 6F5F      		subi r22,lo8(-(1))
 849 012e 7F4F      		sbci r23,hi8(-(1))
 850 0130 42E0      		ldi r20,lo8(2)
 851 0132 20E0      		ldi r18,lo8(g_stDeviceInfo+38)
 852 0134 30E0      		ldi r19,hi8(g_stDeviceInfo+38)
 853 0136 00E0      		ldi r16,lo8(16384)
 854 0138 10E4      		ldi r17,hi8(16384)
 855 013a 0E94 0000 		call CameraControl_DeviceInfo_CopyArray
 856               	.LSM73:
 857 013e 8091 0000 		lds r24,g_nStage
 858 0142 8F5F      		subi r24,lo8(-(1))
 859 0144 8093 0000 		sts g_nStage,r24
 860               	.L24:
 861               	.LSM74:
 862 0148 CE01      		movw r24,r28
 863 014a 0396      		adiw r24,3
 864 014c BE01      		movw r22,r28
 865 014e 6F5F      		subi r22,lo8(-(1))
 866 0150 7F4F      		sbci r23,hi8(-(1))
 867 0152 42E0      		ldi r20,lo8(2)
 868 0154 20E0      		ldi r18,lo8(g_stDeviceInfo+46)
 869 0156 30E0      		ldi r19,hi8(g_stDeviceInfo+46)
 870 0158 00E0      		ldi r16,lo8(20480)
 871 015a 10E5      		ldi r17,hi8(20480)
 872 015c 0E94 0000 		call CameraControl_DeviceInfo_CopyArray
 873               	.LSM75:
 874 0160 8091 0000 		lds r24,g_nStage
 875 0164 8F5F      		subi r24,lo8(-(1))
 876 0166 8093 0000 		sts g_nStage,r24
 877               	.L25:
 878               	.LSM76:
 879 016a CE01      		movw r24,r28
 880 016c 0396      		adiw r24,3
 881 016e BE01      		movw r22,r28
 882 0170 6F5F      		subi r22,lo8(-(1))
 883 0172 7F4F      		sbci r23,hi8(-(1))
 884 0174 42E0      		ldi r20,lo8(2)
 885 0176 20E0      		ldi r18,lo8(g_stDeviceInfo+54)
 886 0178 30E0      		ldi r19,hi8(g_stDeviceInfo+54)
 887 017a 00E0      		ldi r16,lo8(12288)
 888 017c 10E3      		ldi r17,hi8(12288)
 889 017e 0E94 0000 		call CameraControl_DeviceInfo_CopyArray
 890               	.LSM77:
 891 0182 8091 0000 		lds r24,g_nStage
 892 0186 8F5F      		subi r24,lo8(-(1))
 893 0188 8093 0000 		sts g_nStage,r24
 894               	.L26:
 895               	.LSM78:
 896 018c CE01      		movw r24,r28
 897 018e 0396      		adiw r24,3
 898 0190 BE01      		movw r22,r28
 899 0192 6F5F      		subi r22,lo8(-(1))
 900 0194 7F4F      		sbci r23,hi8(-(1))
 901 0196 42E0      		ldi r20,lo8(2)
 902 0198 20E0      		ldi r18,lo8(g_stDeviceInfo+62)
 903 019a 30E0      		ldi r19,hi8(g_stDeviceInfo+62)
 904 019c 00E0      		ldi r16,lo8(14336)
 905 019e 18E3      		ldi r17,hi8(14336)
 906 01a0 0E94 0000 		call CameraControl_DeviceInfo_CopyArray
 907               	.LSM79:
 908 01a4 8091 0000 		lds r24,g_nStage
 909 01a8 8F5F      		subi r24,lo8(-(1))
 910 01aa 8093 0000 		sts g_nStage,r24
 911               	.L27:
 912               	.LSM80:
 913 01ae CE01      		movw r24,r28
 914 01b0 0396      		adiw r24,3
 915 01b2 BE01      		movw r22,r28
 916 01b4 6F5F      		subi r22,lo8(-(1))
 917 01b6 7F4F      		sbci r23,hi8(-(1))
 918 01b8 40E0      		ldi r20,lo8(g_stDeviceInfo+70)
 919 01ba 50E0      		ldi r21,hi8(g_stDeviceInfo+70)
 920 01bc 24E1      		ldi r18,lo8(20)
 921 01be 0E94 0000 		call CameraControl_DeviceInfo_CopyString
 922               	.LSM81:
 923 01c2 8091 0000 		lds r24,g_nStage
 924 01c6 8F5F      		subi r24,lo8(-(1))
 925 01c8 8093 0000 		sts g_nStage,r24
 926               	.L28:
 927               	.LSM82:
 928 01cc CE01      		movw r24,r28
 929 01ce 0396      		adiw r24,3
 930 01d0 BE01      		movw r22,r28
 931 01d2 6F5F      		subi r22,lo8(-(1))
 932 01d4 7F4F      		sbci r23,hi8(-(1))
 933 01d6 40E0      		ldi r20,lo8(g_stDeviceInfo+90)
 934 01d8 50E0      		ldi r21,hi8(g_stDeviceInfo+90)
 935 01da 24E1      		ldi r18,lo8(20)
 936 01dc 0E94 0000 		call CameraControl_DeviceInfo_CopyString
 937               	.LSM83:
 938 01e0 8091 0000 		lds r24,g_nStage
 939 01e4 8F5F      		subi r24,lo8(-(1))
 940 01e6 8093 0000 		sts g_nStage,r24
 941               	.L29:
 942               	.LSM84:
 943 01ea CE01      		movw r24,r28
 944 01ec 0396      		adiw r24,3
 945 01ee BE01      		movw r22,r28
 946 01f0 6F5F      		subi r22,lo8(-(1))
 947 01f2 7F4F      		sbci r23,hi8(-(1))
 948 01f4 40E0      		ldi r20,lo8(g_stDeviceInfo+110)
 949 01f6 50E0      		ldi r21,hi8(g_stDeviceInfo+110)
 950 01f8 24E1      		ldi r18,lo8(20)
 951 01fa 0E94 0000 		call CameraControl_DeviceInfo_CopyString
 952               	.LSM85:
 953 01fe 8091 0000 		lds r24,g_nStage
 954 0202 8F5F      		subi r24,lo8(-(1))
 955 0204 8093 0000 		sts g_nStage,r24
 956               	.L30:
 957               	.LSM86:
 958 0208 CE01      		movw r24,r28
 959 020a 0396      		adiw r24,3
 960 020c BE01      		movw r22,r28
 961 020e 6F5F      		subi r22,lo8(-(1))
 962 0210 7F4F      		sbci r23,hi8(-(1))
 963 0212 40E0      		ldi r20,lo8(g_stDeviceInfo+130)
 964 0214 50E0      		ldi r21,hi8(g_stDeviceInfo+130)
 965 0216 24E1      		ldi r18,lo8(20)
 966 0218 0E94 0000 		call CameraControl_DeviceInfo_CopyString
 967               	.LSM87:
 968 021c 1092 0000 		sts g_nStage,__zero_reg__
 969               	.L17:
 970               	/* epilogue start */
 971               	.LSM88:
 972 0220 0F90      		pop __tmp_reg__
 973 0222 0F90      		pop __tmp_reg__
 974 0224 0F90      		pop __tmp_reg__
 975 0226 0F90      		pop __tmp_reg__
 976 0228 CF91      		pop r28
 977 022a DF91      		pop r29
 978 022c 1F91      		pop r17
 979 022e 0F91      		pop r16
 980 0230 0895      		ret
 981               	.LFE144:
 983               		.section	.text.CameraControl_DeviceInfo_GetInfo,"ax",@progbits
 984               	.global	CameraControl_DeviceInfo_GetInfo
 986               	CameraControl_DeviceInfo_GetInfo:
 987               	.LFB145:
 988               	.LSM89:
 989               	.LVL60:
 990 0000 8F92      		push r8
 991 0002 9F92      		push r9
 992 0004 AF92      		push r10
 993 0006 BF92      		push r11
 994 0008 CF92      		push r12
 995 000a DF92      		push r13
 996 000c EF92      		push r14
 997 000e FF92      		push r15
 998 0010 0F93      		push r16
 999 0012 1F93      		push r17
 1000 0014 DF93      		push r29
 1001 0016 CF93      		push r28
 1002 0018 CDB7      		in r28,__SP_L__
 1003 001a DEB7      		in r29,__SP_H__
 1004 001c 6897      		sbiw r28,24
 1005 001e 0FB6      		in __tmp_reg__,__SREG__
 1006 0020 F894      		cli
 1007 0022 DEBF      		out __SP_H__,r29
 1008 0024 0FBE      		out __SREG__,__tmp_reg__
 1009 0026 CDBF      		out __SP_L__,r28
 1010               	/* prologue: function */
 1011               	/* frame size = 24 */
 1012               	/* stack size = 36 */
 1013               	.L__stack_usage = 36
 1014 0028 7C01      		movw r14,r24
 1015               	.LSM90:
 1016 002a 8DB6      		in r8,__SP_L__
 1017 002c 9EB6      		in r9,__SP_H__
 1018               	.LSM91:
 1019 002e 8091 0000 		lds r24,USB_HostState
 1020               	.LVL61:
 1021 0032 8B30      		cpi r24,lo8(11)
 1022 0034 01F4      		brne .L35
 1023               	.LSM92:
 1024 0036 F701      		movw r30,r14
 1025 0038 8681      		ldd r24,Z+6
 1026 003a 8823      		tst r24
 1027 003c 01F4      		brne .L36
 1028               	.L35:
 1029               	.LSM93:
 1030 003e 00D0      		rcall .
 1031 0040 80E0      		ldi r24,lo8(__c.4520)
 1032 0042 90E0      		ldi r25,hi8(__c.4520)
 1033 0044 EDB7      		in r30,__SP_L__
 1034 0046 FEB7      		in r31,__SP_H__
 1035 0048 9283      		std Z+2,r25
 1036 004a 8183      		std Z+1,r24
 1037 004c 0E94 0000 		call printf_P
 1038 0050 0F90      		pop __tmp_reg__
 1039 0052 0F90      		pop __tmp_reg__
 1040 0054 80E0      		ldi r24,lo8(0)
 1041 0056 00C0      		rjmp .L37
 1042               	.L36:
 1043               	.LSM94:
 1044 0058 F701      		movw r30,r14
 1045 005a 1786      		std Z+15,__zero_reg__
 1046 005c 108A      		std Z+16,__zero_reg__
 1047 005e 118A      		std Z+17,__zero_reg__
 1048 0060 128A      		std Z+18,__zero_reg__
 1049               	.LSM95:
 1050 0062 6E01      		movw r12,r28
 1051 0064 0894      		sec
 1052 0066 C11C      		adc r12,__zero_reg__
 1053 0068 D11C      		adc r13,__zero_reg__
 1054 006a 88E1      		ldi r24,lo8(24)
 1055 006c F601      		movw r30,r12
 1056 006e 1192      		st Z+,__zero_reg__
 1057 0070 8A95      	        dec r24
 1058 0072 01F4      		brne .-6
 1059 0074 8CE0      		ldi r24,lo8(12)
 1060 0076 90E0      		ldi r25,hi8(12)
 1061 0078 A0E0      		ldi r26,hlo8(12)
 1062 007a B0E0      		ldi r27,hhi8(12)
 1063 007c 8983      		std Y+1,r24
 1064 007e 9A83      		std Y+2,r25
 1065 0080 AB83      		std Y+3,r26
 1066 0082 BC83      		std Y+4,r27
 1067 0084 81E0      		ldi r24,lo8(1)
 1068 0086 90E0      		ldi r25,hi8(1)
 1069 0088 9E83      		std Y+6,r25
 1070 008a 8D83      		std Y+5,r24
 1071 008c 81E0      		ldi r24,lo8(4097)
 1072 008e 90E1      		ldi r25,hi8(4097)
 1073 0090 9887      		std Y+8,r25
 1074 0092 8F83      		std Y+7,r24
 1075               	.LSM96:
 1076 0094 C701      		movw r24,r14
 1077 0096 B601      		movw r22,r12
 1078 0098 0E94 0000 		call CameraControl_InitiateTransaction
 1079               	.LSM97:
 1080 009c 0981      		ldd r16,Y+1
 1081 009e 1A81      		ldd r17,Y+2
 1082 00a0 0C50      		subi r16,lo8(-(-12))
 1083 00a2 1040      		sbci r17,hi8(-(-12))
 1084               	.LVL62:
 1085               	.LSM98:
 1086 00a4 00D0      		rcall .
 1087 00a6 00D0      		rcall .
 1088 00a8 80E0      		ldi r24,lo8(__c.4524)
 1089 00aa 90E0      		ldi r25,hi8(__c.4524)
 1090 00ac EDB7      		in r30,__SP_L__
 1091 00ae FEB7      		in r31,__SP_H__
 1092 00b0 9283      		std Z+2,r25
 1093 00b2 8183      		std Z+1,r24
 1094 00b4 1483      		std Z+4,r17
 1095 00b6 0383      		std Z+3,r16
 1096 00b8 0E94 0000 		call printf_P
 1097               	.LVL63:
 1098               	.LSM99:
 1099 00bc 0F90      		pop __tmp_reg__
 1100 00be 0F90      		pop __tmp_reg__
 1101 00c0 0F90      		pop __tmp_reg__
 1102 00c2 0F90      		pop __tmp_reg__
 1103 00c4 8DB7      		in r24,__SP_L__
 1104 00c6 9EB7      		in r25,__SP_H__
 1105 00c8 801B      		sub r24,r16
 1106 00ca 910B      		sbc r25,r17
 1107 00cc 0FB6      		in __tmp_reg__,__SREG__
 1108 00ce F894      		cli
 1109 00d0 9EBF      		out __SP_H__,r25
 1110 00d2 0FBE      		out __SREG__,__tmp_reg__
 1111 00d4 8DBF      		out __SP_L__,r24
 1112 00d6 ADB6      		in r10,__SP_L__
 1113 00d8 BEB6      		in r11,__SP_H__
 1114 00da 0894      		sec
 1115 00dc A11C      		adc r10,__zero_reg__
 1116 00de B11C      		adc r11,__zero_reg__
 1117               	.LSM100:
 1118 00e0 C701      		movw r24,r14
 1119 00e2 B501      		movw r22,r10
 1120 00e4 A801      		movw r20,r16
 1121 00e6 0E94 0000 		call SI_Host_ReadData
 1122               	.LBB8:
 1123               	.LBB9:
 1124               	.LSM101:
 1125 00ea 8091 A600 		lds r24,166
 1126 00ee 8E77      		andi r24,lo8(126)
 1127 00f0 8093 A600 		sts 166,r24
 1128               	.LBE9:
 1129               	.LBE8:
 1130               	.LSM102:
 1131 00f4 1092 0000 		sts g_nStage,__zero_reg__
 1132               	.LSM103:
 1133 00f8 C801      		movw r24,r16
 1134 00fa B501      		movw r22,r10
 1135 00fc 0E94 0000 		call CameraControl_DeviceInfo_Parse
 1136               	.LSM104:
 1137 0100 81E0      		ldi r24,lo8(1)
 1138 0102 8093 0000 		sts g_iDataIsValid,r24
 1139               	.LSM105:
 1140 0106 C701      		movw r24,r14
 1141 0108 B601      		movw r22,r12
 1142 010a 0E94 0000 		call CameraControl_GetResponseAndCheck
 1143               	.LVL64:
 1144               	.L37:
 1145               	.LSM106:
 1146 010e 0FB6      		in __tmp_reg__,__SREG__
 1147 0110 F894      		cli
 1148 0112 9EBE      		out __SP_H__,r9
 1149 0114 0FBE      		out __SREG__,__tmp_reg__
 1150 0116 8DBE      		out __SP_L__,r8
 1151               	/* epilogue start */
 1152 0118 6896      		adiw r28,24
 1153 011a 0FB6      		in __tmp_reg__,__SREG__
 1154 011c F894      		cli
 1155 011e DEBF      		out __SP_H__,r29
 1156 0120 0FBE      		out __SREG__,__tmp_reg__
 1157 0122 CDBF      		out __SP_L__,r28
 1158 0124 CF91      		pop r28
 1159 0126 DF91      		pop r29
 1160 0128 1F91      		pop r17
 1161 012a 0F91      		pop r16
 1162 012c FF90      		pop r15
 1163 012e EF90      		pop r14
 1164               	.LVL65:
 1165 0130 DF90      		pop r13
 1166 0132 CF90      		pop r12
 1167 0134 BF90      		pop r11
 1168 0136 AF90      		pop r10
 1169 0138 9F90      		pop r9
 1170 013a 8F90      		pop r8
 1171 013c 0895      		ret
 1172               	.LFE145:
 1174               		.section	.text.CameraControl_DeviceInfo_Printout,"ax",@progbits
 1175               	.global	CameraControl_DeviceInfo_Printout
 1177               	CameraControl_DeviceInfo_Printout:
 1178               	.LFB146:
 1179               	.LSM107:
 1180               	.LVL66:
 1181 0000 8F92      		push r8
 1182 0002 9F92      		push r9
 1183 0004 AF92      		push r10
 1184 0006 BF92      		push r11
 1185 0008 CF92      		push r12
 1186 000a DF92      		push r13
 1187 000c EF92      		push r14
 1188 000e FF92      		push r15
 1189 0010 0F93      		push r16
 1190 0012 1F93      		push r17
 1191 0014 CF93      		push r28
 1192 0016 DF93      		push r29
 1193               	/* prologue: function */
 1194               	/* frame size = 0 */
 1195               	/* stack size = 12 */
 1196               	.L__stack_usage = 12
 1197               	.LVL67:
 1198               	.LSM108:
 1199 0018 2091 0000 		lds r18,USB_HostState
 1200 001c 2B30      		cpi r18,lo8(11)
 1201 001e 01F4      		brne .L39
 1202               	.LSM109:
 1203 0020 FC01      		movw r30,r24
 1204 0022 2681      		ldd r18,Z+6
 1205 0024 2223      		tst r18
 1206 0026 01F4      		brne .L40
 1207               	.L39:
 1208               	.LSM110:
 1209 0028 00D0      		rcall .
 1210 002a 80E0      		ldi r24,lo8(__c.4532)
 1211 002c 90E0      		ldi r25,hi8(__c.4532)
 1212               	.LVL68:
 1213 002e EDB7      		in r30,__SP_L__
 1214 0030 FEB7      		in r31,__SP_H__
 1215 0032 9283      		std Z+2,r25
 1216 0034 8183      		std Z+1,r24
 1217 0036 0E94 0000 		call printf_P
 1218 003a 0F90      		pop __tmp_reg__
 1219 003c 0F90      		pop __tmp_reg__
 1220 003e 00C0      		rjmp .L58
 1221               	.LVL69:
 1222               	.L40:
 1223               	.LSM111:
 1224 0040 2091 0000 		lds r18,g_iDataIsValid
 1225 0044 2223      		tst r18
 1226 0046 01F4      		brne .L42
 1227               	.LSM112:
 1228 0048 0E94 0000 		call CameraControl_DeviceInfo_GetInfo
 1229               	.LVL70:
 1230 004c 182F      		mov r17,r24
 1231               	.LVL71:
 1232               	.LSM113:
 1233 004e 8823      		tst r24
 1234 0050 01F0      		breq .L42
 1235               	.LSM114:
 1236 0052 00D0      		rcall .
 1237 0054 20E0      		ldi r18,lo8(__c.4534)
 1238 0056 30E0      		ldi r19,hi8(__c.4534)
 1239 0058 EDB7      		in r30,__SP_L__
 1240 005a FEB7      		in r31,__SP_H__
 1241 005c 3283      		std Z+2,r19
 1242 005e 2183      		std Z+1,r18
 1243 0060 0E94 0000 		call printf_P
 1244               	.LVL72:
 1245               	.LSM115:
 1246 0064 0F90      		pop __tmp_reg__
 1247 0066 0F90      		pop __tmp_reg__
 1248 0068 00C0      		rjmp .L41
 1249               	.LVL73:
 1250               	.L42:
 1251               	.LSM116:
 1252 006a 00D0      		rcall .
 1253 006c 00D0      		rcall .
 1254 006e 80E0      		ldi r24,lo8(__c.4536)
 1255 0070 90E0      		ldi r25,hi8(__c.4536)
 1256 0072 EDB7      		in r30,__SP_L__
 1257 0074 FEB7      		in r31,__SP_H__
 1258 0076 9283      		std Z+2,r25
 1259 0078 8183      		std Z+1,r24
 1260 007a 8091 0000 		lds r24,g_stDeviceInfo
 1261 007e 9091 0000 		lds r25,g_stDeviceInfo+1
 1262 0082 9483      		std Z+4,r25
 1263 0084 8383      		std Z+3,r24
 1264 0086 0E94 0000 		call printf_P
 1265               	.LSM117:
 1266 008a 00D0      		rcall .
 1267 008c 80E0      		ldi r24,lo8(__c.4538)
 1268 008e 90E0      		ldi r25,hi8(__c.4538)
 1269 0090 EDB7      		in r30,__SP_L__
 1270 0092 FEB7      		in r31,__SP_H__
 1271 0094 9283      		std Z+2,r25
 1272 0096 8183      		std Z+1,r24
 1273 0098 8091 0000 		lds r24,g_stDeviceInfo+2
 1274 009c 9091 0000 		lds r25,g_stDeviceInfo+2+1
 1275 00a0 A091 0000 		lds r26,g_stDeviceInfo+2+2
 1276 00a4 B091 0000 		lds r27,g_stDeviceInfo+2+3
 1277 00a8 8383      		std Z+3,r24
 1278 00aa 9483      		std Z+4,r25
 1279 00ac A583      		std Z+5,r26
 1280 00ae B683      		std Z+6,r27
 1281 00b0 0E94 0000 		call printf_P
 1282               	.LSM118:
 1283 00b4 0F90      		pop __tmp_reg__
 1284 00b6 0F90      		pop __tmp_reg__
 1285 00b8 80E0      		ldi r24,lo8(__c.4540)
 1286 00ba 90E0      		ldi r25,hi8(__c.4540)
 1287 00bc EDB7      		in r30,__SP_L__
 1288 00be FEB7      		in r31,__SP_H__
 1289 00c0 9283      		std Z+2,r25
 1290 00c2 8183      		std Z+1,r24
 1291 00c4 8091 0000 		lds r24,g_stDeviceInfo+6
 1292 00c8 9091 0000 		lds r25,g_stDeviceInfo+6+1
 1293 00cc 9483      		std Z+4,r25
 1294 00ce 8383      		std Z+3,r24
 1295 00d0 0E94 0000 		call printf_P
 1296               	.LSM119:
 1297 00d4 80E0      		ldi r24,lo8(__c.4542)
 1298 00d6 90E0      		ldi r25,hi8(__c.4542)
 1299 00d8 EDB7      		in r30,__SP_L__
 1300 00da FEB7      		in r31,__SP_H__
 1301 00dc 9283      		std Z+2,r25
 1302 00de 8183      		std Z+1,r24
 1303 00e0 80E0      		ldi r24,lo8(g_stDeviceInfo+8)
 1304 00e2 90E0      		ldi r25,hi8(g_stDeviceInfo+8)
 1305 00e4 9483      		std Z+4,r25
 1306 00e6 8383      		std Z+3,r24
 1307 00e8 0E94 0000 		call printf_P
 1308               	.LSM120:
 1309 00ec 80E0      		ldi r24,lo8(__c.4544)
 1310 00ee 90E0      		ldi r25,hi8(__c.4544)
 1311 00f0 EDB7      		in r30,__SP_L__
 1312 00f2 FEB7      		in r31,__SP_H__
 1313 00f4 9283      		std Z+2,r25
 1314 00f6 8183      		std Z+1,r24
 1315 00f8 8091 0000 		lds r24,g_stDeviceInfo+28
 1316 00fc 9091 0000 		lds r25,g_stDeviceInfo+28+1
 1317 0100 9483      		std Z+4,r25
 1318 0102 8383      		std Z+3,r24
 1319 0104 0E94 0000 		call printf_P
 1320               	.LBB10:
 1321               	.LSM121:
 1322 0108 A090 0000 		lds r10,g_stDeviceInfo+30
 1323 010c B090 0000 		lds r11,g_stDeviceInfo+31
 1324 0110 C090 0000 		lds r12,g_stDeviceInfo+32
 1325 0114 D090 0000 		lds r13,g_stDeviceInfo+33
 1326 0118 E090 0000 		lds r14,g_stDeviceInfo+34
 1327 011c F090 0000 		lds r15,g_stDeviceInfo+35
 1328 0120 0091 0000 		lds r16,g_stDeviceInfo+36
 1329 0124 1091 0000 		lds r17,g_stDeviceInfo+37
 1330               	.LVL74:
 1331 0128 0F90      		pop __tmp_reg__
 1332 012a 0F90      		pop __tmp_reg__
 1333 012c 80E0      		ldi r24,lo8(__c.4548)
 1334 012e 90E0      		ldi r25,hi8(__c.4548)
 1335 0130 EDB7      		in r30,__SP_L__
 1336 0132 FEB7      		in r31,__SP_H__
 1337 0134 9283      		std Z+2,r25
 1338 0136 8183      		std Z+1,r24
 1339 0138 0E94 0000 		call printf_P
 1340               	.LVL75:
 1341 013c 0F90      		pop __tmp_reg__
 1342 013e 0F90      		pop __tmp_reg__
 1343 0140 C0E0      		ldi r28,lo8(4096)
 1344 0142 D0E1      		ldi r29,hi8(4096)
 1345 0144 E0E0      		ldi r30,lo8(__c.4550)
 1346 0146 8E2E      		mov r8,r30
 1347 0148 E0E0      		ldi r30,hi8(__c.4550)
 1348 014a 9E2E      		mov r9,r30
 1349               	.LVL76:
 1350               	.L45:
 1351               	.LSM122:
 1352 014c C501      		movw r24,r10
 1353 014e 8170      		andi r24,lo8(1)
 1354 0150 9070      		andi r25,hi8(1)
 1355 0152 0097      		sbiw r24,0
 1356 0154 01F0      		breq .L43
 1357               	.LSM123:
 1358 0156 00D0      		rcall .
 1359 0158 00D0      		rcall .
 1360 015a EDB7      		in r30,__SP_L__
 1361 015c FEB7      		in r31,__SP_H__
 1362 015e 9282      		std Z+2,r9
 1363 0160 8182      		std Z+1,r8
 1364 0162 D483      		std Z+4,r29
 1365 0164 C383      		std Z+3,r28
 1366 0166 0E94 0000 		call printf_P
 1367 016a 0F90      		pop __tmp_reg__
 1368 016c 0F90      		pop __tmp_reg__
 1369 016e 0F90      		pop __tmp_reg__
 1370 0170 0F90      		pop __tmp_reg__
 1371               	.L43:
 1372               	.LVL77:
 1373               	.LSM124:
 1374 0172 2196      		adiw r28,1
 1375 0174 F0E1      		ldi r31,hi8(4160)
 1376 0176 C034      		cpi r28,lo8(4160)
 1377 0178 DF07      		cpc r29,r31
 1378 017a 01F0      		breq .L44
 1379               	.LSM125:
 1380 017c 9501      		movw r18,r10
 1381 017e A601      		movw r20,r12
 1382 0180 B701      		movw r22,r14
 1383 0182 C801      		movw r24,r16
 1384 0184 01E0      		ldi r16,lo8(1)
 1385 0186 0E94 0000 		call __lshrdi3
 1386 018a 5901      		movw r10,r18
 1387               	.LVL78:
 1388 018c 6A01      		movw r12,r20
 1389 018e 7B01      		movw r14,r22
 1390 0190 8C01      		movw r16,r24
 1391 0192 00C0      		rjmp .L45
 1392               	.LVL79:
 1393               	.L44:
 1394               	.LBE10:
 1395               	.LBB11:
 1396               	.LSM126:
 1397 0194 A090 0000 		lds r10,g_stDeviceInfo+38
 1398               	.LVL80:
 1399 0198 B090 0000 		lds r11,g_stDeviceInfo+39
 1400 019c C090 0000 		lds r12,g_stDeviceInfo+40
 1401 01a0 D090 0000 		lds r13,g_stDeviceInfo+41
 1402 01a4 E090 0000 		lds r14,g_stDeviceInfo+42
 1403 01a8 F090 0000 		lds r15,g_stDeviceInfo+43
 1404 01ac 0091 0000 		lds r16,g_stDeviceInfo+44
 1405 01b0 1091 0000 		lds r17,g_stDeviceInfo+45
 1406               	.LVL81:
 1407 01b4 00D0      		rcall .
 1408 01b6 80E0      		ldi r24,lo8(__c.4557)
 1409 01b8 90E0      		ldi r25,hi8(__c.4557)
 1410 01ba EDB7      		in r30,__SP_L__
 1411 01bc FEB7      		in r31,__SP_H__
 1412 01be 9283      		std Z+2,r25
 1413 01c0 8183      		std Z+1,r24
 1414 01c2 0E94 0000 		call printf_P
 1415               	.LVL82:
 1416 01c6 0F90      		pop __tmp_reg__
 1417 01c8 0F90      		pop __tmp_reg__
 1418 01ca C0E0      		ldi r28,lo8(16384)
 1419 01cc D0E4      		ldi r29,hi8(16384)
 1420 01ce 70E0      		ldi r23,lo8(__c.4559)
 1421 01d0 872E      		mov r8,r23
 1422 01d2 70E0      		ldi r23,hi8(__c.4559)
 1423 01d4 972E      		mov r9,r23
 1424               	.LVL83:
 1425               	.L48:
 1426               	.LSM127:
 1427 01d6 C501      		movw r24,r10
 1428 01d8 8170      		andi r24,lo8(1)
 1429 01da 9070      		andi r25,hi8(1)
 1430 01dc 0097      		sbiw r24,0
 1431 01de 01F0      		breq .L46
 1432               	.LSM128:
 1433 01e0 00D0      		rcall .
 1434 01e2 00D0      		rcall .
 1435 01e4 EDB7      		in r30,__SP_L__
 1436 01e6 FEB7      		in r31,__SP_H__
 1437 01e8 9282      		std Z+2,r9
 1438 01ea 8182      		std Z+1,r8
 1439 01ec D483      		std Z+4,r29
 1440 01ee C383      		std Z+3,r28
 1441 01f0 0E94 0000 		call printf_P
 1442 01f4 0F90      		pop __tmp_reg__
 1443 01f6 0F90      		pop __tmp_reg__
 1444 01f8 0F90      		pop __tmp_reg__
 1445 01fa 0F90      		pop __tmp_reg__
 1446               	.L46:
 1447               	.LVL84:
 1448               	.LSM129:
 1449 01fc 2196      		adiw r28,1
 1450 01fe F0E4      		ldi r31,hi8(16448)
 1451 0200 C034      		cpi r28,lo8(16448)
 1452 0202 DF07      		cpc r29,r31
 1453 0204 01F0      		breq .L47
 1454               	.LSM130:
 1455 0206 9501      		movw r18,r10
 1456 0208 A601      		movw r20,r12
 1457 020a B701      		movw r22,r14
 1458 020c C801      		movw r24,r16
 1459 020e 01E0      		ldi r16,lo8(1)
 1460 0210 0E94 0000 		call __lshrdi3
 1461 0214 5901      		movw r10,r18
 1462               	.LVL85:
 1463 0216 6A01      		movw r12,r20
 1464 0218 7B01      		movw r14,r22
 1465 021a 8C01      		movw r16,r24
 1466 021c 00C0      		rjmp .L48
 1467               	.LVL86:
 1468               	.L47:
 1469               	.LBE11:
 1470               	.LBB12:
 1471               	.LSM131:
 1472 021e A090 0000 		lds r10,g_stDeviceInfo+46
 1473               	.LVL87:
 1474 0222 B090 0000 		lds r11,g_stDeviceInfo+47
 1475 0226 C090 0000 		lds r12,g_stDeviceInfo+48
 1476 022a D090 0000 		lds r13,g_stDeviceInfo+49
 1477 022e E090 0000 		lds r14,g_stDeviceInfo+50
 1478 0232 F090 0000 		lds r15,g_stDeviceInfo+51
 1479 0236 0091 0000 		lds r16,g_stDeviceInfo+52
 1480 023a 1091 0000 		lds r17,g_stDeviceInfo+53
 1481               	.LVL88:
 1482 023e 00D0      		rcall .
 1483 0240 80E0      		ldi r24,lo8(__c.4566)
 1484 0242 90E0      		ldi r25,hi8(__c.4566)
 1485 0244 EDB7      		in r30,__SP_L__
 1486 0246 FEB7      		in r31,__SP_H__
 1487 0248 9283      		std Z+2,r25
 1488 024a 8183      		std Z+1,r24
 1489 024c 0E94 0000 		call printf_P
 1490               	.LVL89:
 1491 0250 0F90      		pop __tmp_reg__
 1492 0252 0F90      		pop __tmp_reg__
 1493 0254 C0E0      		ldi r28,lo8(20480)
 1494 0256 D0E5      		ldi r29,hi8(20480)
 1495 0258 60E0      		ldi r22,lo8(__c.4568)
 1496 025a 862E      		mov r8,r22
 1497 025c 60E0      		ldi r22,hi8(__c.4568)
 1498 025e 962E      		mov r9,r22
 1499               	.LVL90:
 1500               	.L51:
 1501               	.LSM132:
 1502 0260 C501      		movw r24,r10
 1503 0262 8170      		andi r24,lo8(1)
 1504 0264 9070      		andi r25,hi8(1)
 1505 0266 0097      		sbiw r24,0
 1506 0268 01F0      		breq .L49
 1507               	.LSM133:
 1508 026a 00D0      		rcall .
 1509 026c 00D0      		rcall .
 1510 026e EDB7      		in r30,__SP_L__
 1511 0270 FEB7      		in r31,__SP_H__
 1512 0272 9282      		std Z+2,r9
 1513 0274 8182      		std Z+1,r8
 1514 0276 D483      		std Z+4,r29
 1515 0278 C383      		std Z+3,r28
 1516 027a 0E94 0000 		call printf_P
 1517 027e 0F90      		pop __tmp_reg__
 1518 0280 0F90      		pop __tmp_reg__
 1519 0282 0F90      		pop __tmp_reg__
 1520 0284 0F90      		pop __tmp_reg__
 1521               	.L49:
 1522               	.LVL91:
 1523               	.LSM134:
 1524 0286 2196      		adiw r28,1
 1525 0288 F0E5      		ldi r31,hi8(20544)
 1526 028a C034      		cpi r28,lo8(20544)
 1527 028c DF07      		cpc r29,r31
 1528 028e 01F0      		breq .L50
 1529               	.LSM135:
 1530 0290 9501      		movw r18,r10
 1531 0292 A601      		movw r20,r12
 1532 0294 B701      		movw r22,r14
 1533 0296 C801      		movw r24,r16
 1534 0298 01E0      		ldi r16,lo8(1)
 1535 029a 0E94 0000 		call __lshrdi3
 1536 029e 5901      		movw r10,r18
 1537               	.LVL92:
 1538 02a0 6A01      		movw r12,r20
 1539 02a2 7B01      		movw r14,r22
 1540 02a4 8C01      		movw r16,r24
 1541 02a6 00C0      		rjmp .L51
 1542               	.LVL93:
 1543               	.L50:
 1544               	.LBE12:
 1545               	.LBB13:
 1546               	.LSM136:
 1547 02a8 A090 0000 		lds r10,g_stDeviceInfo+54
 1548               	.LVL94:
 1549 02ac B090 0000 		lds r11,g_stDeviceInfo+55
 1550 02b0 C090 0000 		lds r12,g_stDeviceInfo+56
 1551 02b4 D090 0000 		lds r13,g_stDeviceInfo+57
 1552 02b8 E090 0000 		lds r14,g_stDeviceInfo+58
 1553 02bc F090 0000 		lds r15,g_stDeviceInfo+59
 1554 02c0 0091 0000 		lds r16,g_stDeviceInfo+60
 1555 02c4 1091 0000 		lds r17,g_stDeviceInfo+61
 1556               	.LVL95:
 1557 02c8 00D0      		rcall .
 1558 02ca 80E0      		ldi r24,lo8(__c.4575)
 1559 02cc 90E0      		ldi r25,hi8(__c.4575)
 1560 02ce EDB7      		in r30,__SP_L__
 1561 02d0 FEB7      		in r31,__SP_H__
 1562 02d2 9283      		std Z+2,r25
 1563 02d4 8183      		std Z+1,r24
 1564 02d6 0E94 0000 		call printf_P
 1565               	.LVL96:
 1566 02da 0F90      		pop __tmp_reg__
 1567 02dc 0F90      		pop __tmp_reg__
 1568 02de C0E0      		ldi r28,lo8(12288)
 1569 02e0 D0E3      		ldi r29,hi8(12288)
 1570 02e2 50E0      		ldi r21,lo8(__c.4577)
 1571 02e4 852E      		mov r8,r21
 1572 02e6 50E0      		ldi r21,hi8(__c.4577)
 1573 02e8 952E      		mov r9,r21
 1574               	.LVL97:
 1575               	.L54:
 1576               	.LSM137:
 1577 02ea C501      		movw r24,r10
 1578 02ec 8170      		andi r24,lo8(1)
 1579 02ee 9070      		andi r25,hi8(1)
 1580 02f0 0097      		sbiw r24,0
 1581 02f2 01F0      		breq .L52
 1582               	.LSM138:
 1583 02f4 00D0      		rcall .
 1584 02f6 00D0      		rcall .
 1585 02f8 EDB7      		in r30,__SP_L__
 1586 02fa FEB7      		in r31,__SP_H__
 1587 02fc 9282      		std Z+2,r9
 1588 02fe 8182      		std Z+1,r8
 1589 0300 D483      		std Z+4,r29
 1590 0302 C383      		std Z+3,r28
 1591 0304 0E94 0000 		call printf_P
 1592 0308 0F90      		pop __tmp_reg__
 1593 030a 0F90      		pop __tmp_reg__
 1594 030c 0F90      		pop __tmp_reg__
 1595 030e 0F90      		pop __tmp_reg__
 1596               	.L52:
 1597               	.LVL98:
 1598               	.LSM139:
 1599 0310 2196      		adiw r28,1
 1600 0312 F0E3      		ldi r31,hi8(12352)
 1601 0314 C034      		cpi r28,lo8(12352)
 1602 0316 DF07      		cpc r29,r31
 1603 0318 01F0      		breq .L53
 1604               	.LSM140:
 1605 031a 9501      		movw r18,r10
 1606 031c A601      		movw r20,r12
 1607 031e B701      		movw r22,r14
 1608 0320 C801      		movw r24,r16
 1609 0322 01E0      		ldi r16,lo8(1)
 1610 0324 0E94 0000 		call __lshrdi3
 1611 0328 5901      		movw r10,r18
 1612               	.LVL99:
 1613 032a 6A01      		movw r12,r20
 1614 032c 7B01      		movw r14,r22
 1615 032e 8C01      		movw r16,r24
 1616 0330 00C0      		rjmp .L54
 1617               	.LVL100:
 1618               	.L53:
 1619               	.LBE13:
 1620               	.LBB14:
 1621               	.LSM141:
 1622 0332 A090 0000 		lds r10,g_stDeviceInfo+62
 1623               	.LVL101:
 1624 0336 B090 0000 		lds r11,g_stDeviceInfo+63
 1625 033a C090 0000 		lds r12,g_stDeviceInfo+64
 1626 033e D090 0000 		lds r13,g_stDeviceInfo+65
 1627 0342 E090 0000 		lds r14,g_stDeviceInfo+66
 1628 0346 F090 0000 		lds r15,g_stDeviceInfo+67
 1629 034a 0091 0000 		lds r16,g_stDeviceInfo+68
 1630 034e 1091 0000 		lds r17,g_stDeviceInfo+69
 1631               	.LVL102:
 1632 0352 00D0      		rcall .
 1633 0354 80E0      		ldi r24,lo8(__c.4584)
 1634 0356 90E0      		ldi r25,hi8(__c.4584)
 1635 0358 EDB7      		in r30,__SP_L__
 1636 035a FEB7      		in r31,__SP_H__
 1637 035c 9283      		std Z+2,r25
 1638 035e 8183      		std Z+1,r24
 1639 0360 0E94 0000 		call printf_P
 1640               	.LVL103:
 1641 0364 0F90      		pop __tmp_reg__
 1642 0366 0F90      		pop __tmp_reg__
 1643 0368 C0E0      		ldi r28,lo8(14336)
 1644 036a D8E3      		ldi r29,hi8(14336)
 1645 036c 40E0      		ldi r20,lo8(__c.4586)
 1646 036e 842E      		mov r8,r20
 1647 0370 40E0      		ldi r20,hi8(__c.4586)
 1648 0372 942E      		mov r9,r20
 1649               	.LVL104:
 1650               	.L57:
 1651               	.LSM142:
 1652 0374 C501      		movw r24,r10
 1653 0376 8170      		andi r24,lo8(1)
 1654 0378 9070      		andi r25,hi8(1)
 1655 037a 0097      		sbiw r24,0
 1656 037c 01F0      		breq .L55
 1657               	.LSM143:
 1658 037e 00D0      		rcall .
 1659 0380 00D0      		rcall .
 1660 0382 EDB7      		in r30,__SP_L__
 1661 0384 FEB7      		in r31,__SP_H__
 1662 0386 9282      		std Z+2,r9
 1663 0388 8182      		std Z+1,r8
 1664 038a D483      		std Z+4,r29
 1665 038c C383      		std Z+3,r28
 1666 038e 0E94 0000 		call printf_P
 1667 0392 0F90      		pop __tmp_reg__
 1668 0394 0F90      		pop __tmp_reg__
 1669 0396 0F90      		pop __tmp_reg__
 1670 0398 0F90      		pop __tmp_reg__
 1671               	.L55:
 1672               	.LVL105:
 1673               	.LSM144:
 1674 039a 2196      		adiw r28,1
 1675 039c F8E3      		ldi r31,hi8(14400)
 1676 039e C034      		cpi r28,lo8(14400)
 1677 03a0 DF07      		cpc r29,r31
 1678 03a2 01F0      		breq .L56
 1679               	.LSM145:
 1680 03a4 9501      		movw r18,r10
 1681 03a6 A601      		movw r20,r12
 1682 03a8 B701      		movw r22,r14
 1683 03aa C801      		movw r24,r16
 1684 03ac 01E0      		ldi r16,lo8(1)
 1685 03ae 0E94 0000 		call __lshrdi3
 1686 03b2 5901      		movw r10,r18
 1687               	.LVL106:
 1688 03b4 6A01      		movw r12,r20
 1689 03b6 7B01      		movw r14,r22
 1690 03b8 8C01      		movw r16,r24
 1691 03ba 00C0      		rjmp .L57
 1692               	.LVL107:
 1693               	.L56:
 1694               	.LBE14:
 1695               	.LSM146:
 1696 03bc 00D0      		rcall .
 1697 03be 00D0      		rcall .
 1698 03c0 80E0      		ldi r24,lo8(__c.4591)
 1699 03c2 90E0      		ldi r25,hi8(__c.4591)
 1700 03c4 EDB7      		in r30,__SP_L__
 1701 03c6 FEB7      		in r31,__SP_H__
 1702 03c8 9283      		std Z+2,r25
 1703 03ca 8183      		std Z+1,r24
 1704 03cc C0E0      		ldi r28,lo8(g_stDeviceInfo+70)
 1705 03ce D0E0      		ldi r29,hi8(g_stDeviceInfo+70)
 1706 03d0 D483      		std Z+4,r29
 1707 03d2 C383      		std Z+3,r28
 1708 03d4 0E94 0000 		call printf_P
 1709               	.LSM147:
 1710 03d8 80E0      		ldi r24,lo8(__c.4593)
 1711 03da 90E0      		ldi r25,hi8(__c.4593)
 1712 03dc EDB7      		in r30,__SP_L__
 1713 03de FEB7      		in r31,__SP_H__
 1714 03e0 9283      		std Z+2,r25
 1715 03e2 8183      		std Z+1,r24
 1716 03e4 CE01      		movw r24,r28
 1717 03e6 4496      		adiw r24,20
 1718 03e8 9483      		std Z+4,r25
 1719 03ea 8383      		std Z+3,r24
 1720 03ec 0E94 0000 		call printf_P
 1721               	.LSM148:
 1722 03f0 80E0      		ldi r24,lo8(__c.4595)
 1723 03f2 90E0      		ldi r25,hi8(__c.4595)
 1724 03f4 EDB7      		in r30,__SP_L__
 1725 03f6 FEB7      		in r31,__SP_H__
 1726 03f8 9283      		std Z+2,r25
 1727 03fa 8183      		std Z+1,r24
 1728 03fc CE01      		movw r24,r28
 1729 03fe 8896      		adiw r24,40
 1730 0400 9483      		std Z+4,r25
 1731 0402 8383      		std Z+3,r24
 1732 0404 0E94 0000 		call printf_P
 1733               	.LSM149:
 1734 0408 80E0      		ldi r24,lo8(__c.4597)
 1735 040a 90E0      		ldi r25,hi8(__c.4597)
 1736 040c EDB7      		in r30,__SP_L__
 1737 040e FEB7      		in r31,__SP_H__
 1738 0410 9283      		std Z+2,r25
 1739 0412 8183      		std Z+1,r24
 1740 0414 EC96      		adiw r28,60
 1741 0416 D483      		std Z+4,r29
 1742 0418 C383      		std Z+3,r28
 1743 041a 0E94 0000 		call printf_P
 1744               	.LSM150:
 1745 041e 0F90      		pop __tmp_reg__
 1746 0420 0F90      		pop __tmp_reg__
 1747 0422 0F90      		pop __tmp_reg__
 1748 0424 0F90      		pop __tmp_reg__
 1749               	.LVL108:
 1750               	.L58:
 1751 0426 10E0      		ldi r17,lo8(0)
 1752               	.L41:
 1753               	.LSM151:
 1754 0428 812F      		mov r24,r17
 1755               	/* epilogue start */
 1756 042a DF91      		pop r29
 1757 042c CF91      		pop r28
 1758 042e 1F91      		pop r17
 1759 0430 0F91      		pop r16
 1760 0432 FF90      		pop r15
 1761 0434 EF90      		pop r14
 1762 0436 DF90      		pop r13
 1763 0438 CF90      		pop r12
 1764 043a BF90      		pop r11
 1765 043c AF90      		pop r10
 1766 043e 9F90      		pop r9
 1767 0440 8F90      		pop r8
 1768 0442 0895      		ret
 1769               	.LFE146:
 1771               	.global	g_nStage
 1772               	.global	g_nStage
 1773               		.section .bss
 1776               	g_nStage:
 1777 0000 00        		.skip 1,0
 1778               	.global	g_iDataIsValid
 1779               	.global	g_iDataIsValid
 1782               	g_iDataIsValid:
 1783 0001 00        		.skip 1,0
 1784               	.global	g_stDeviceInfo
 1785               	.global	g_stDeviceInfo
 1788               	g_stDeviceInfo:
 1789 0002 0000 0000 		.skip 150,0
 1789      0000 0000 
 1789      0000 0000 
 1789      0000 0000 
 1789      0000 0000 
 1790               		.section	.progmem.data,"a",@progbits
 1793               	__c.4597:
 1794 0000 5365 7269 		.string	"Serial Num.:\t%s\r\n"
 1794      616C 204E 
 1794      756D 2E3A 
 1794      0925 730D 
 1794      0A00 
 1797               	__c.4595:
 1798 0012 4465 7669 		.string	"Device ver.:\t%s\r\n"
 1798      6365 2076 
 1798      6572 2E3A 
 1798      0925 730D 
 1798      0A00 
 1801               	__c.4593:
 1802 0024 4D6F 6465 		.string	"Model:\t\t%s\r\n"
 1802      6C3A 0909 
 1802      2573 0D0A 
 1802      00
 1805               	__c.4591:
 1806 0031 0D0A 4D61 		.string	"\r\nManufacturer:\t%s\r\n"
 1806      6E75 6661 
 1806      6374 7572 
 1806      6572 3A09 
 1806      2573 0D0A 
 1809               	__c.4586:
 1810 0046 0928 2D29 		.string	"\t(-) 0x%04x\r\n"
 1810      2030 7825 
 1810      3034 780D 
 1810      0A00 
 1813               	__c.4584:
 1814 0054 0D0A 496D 		.string	"\r\nImage Formats:\r\n"
 1814      6167 6520 
 1814      466F 726D 
 1814      6174 733A 
 1814      0D0A 00
 1817               	__c.4577:
 1818 0067 0928 2D29 		.string	"\t(-) 0x%04x\r\n"
 1818      2030 7825 
 1818      3034 780D 
 1818      0A00 
 1821               	__c.4575:
 1822 0075 0D0A 4361 		.string	"\r\nCapture formats:\r\n"
 1822      7074 7572 
 1822      6520 666F 
 1822      726D 6174 
 1822      733A 0D0A 
 1825               	__c.4568:
 1826 008a 0928 2D29 		.string	"\t(-) 0x%04x\r\n"
 1826      2030 7825 
 1826      3034 780D 
 1826      0A00 
 1829               	__c.4566:
 1830 0098 0D0A 4465 		.string	"\r\nDevice properties supported:\r\n"
 1830      7669 6365 
 1830      2070 726F 
 1830      7065 7274 
 1830      6965 7320 
 1833               	__c.4559:
 1834 00b9 0928 2D29 		.string	"\t(-) 0x%04x\r\n"
 1834      2030 7825 
 1834      3034 780D 
 1834      0A00 
 1837               	__c.4557:
 1838 00c7 0D0A 4576 		.string	"\r\nEvents supported:\r\n"
 1838      656E 7473 
 1838      2073 7570 
 1838      706F 7274 
 1838      6564 3A0D 
 1841               	__c.4550:
 1842 00dd 0928 2D29 		.string	"\t(-) 0x%04x\r\n"
 1842      2030 7825 
 1842      3034 780D 
 1842      0A00 
 1845               	__c.4548:
 1846 00eb 0D0A 4F70 		.string	"\r\nOperations supported:\r\n"
 1846      6572 6174 
 1846      696F 6E73 
 1846      2073 7570 
 1846      706F 7274 
 1849               	__c.4544:
 1850 0105 4675 6E63 		.string	"Func.Mode:\t%d\r\n"
 1850      2E4D 6F64 
 1850      653A 0925 
 1850      640D 0A00 
 1853               	__c.4542:
 1854 0115 0D0A 5665 		.string	"\r\nVend.Ext.Desc.:\t%s\r\n"
 1854      6E64 2E45 
 1854      7874 2E44 
 1854      6573 632E 
 1854      3A09 2573 
 1857               	__c.4540:
 1858 012c 5665 6E64 		.string	"Vend.Ext.Ver.:\t%d\r\n"
 1858      2E45 7874 
 1858      2E56 6572 
 1858      2E3A 0925 
 1858      640D 0A00 
 1861               	__c.4538:
 1862 0140 5665 6E64 		.string	"Vend.Ext.ID.:\t%d\r\n"
 1862      2E45 7874 
 1862      2E49 442E 
 1862      3A09 2564 
 1862      0D0A 00
 1865               	__c.4536:
 1866 0153 5374 642E 		.string	"Std.Ver.:\t%d\r\n"
 1866      5665 722E 
 1866      3A09 2564 
 1866      0D0A 00
 1869               	__c.4534:
 1870 0162 4572 726F 		.string	"Error reading device info\r\n"
 1870      7220 7265 
 1870      6164 696E 
 1870      6720 6465 
 1870      7669 6365 
 1873               	__c.4532:
 1874 017e 4465 7669 		.string	"Device not connected.\r\n"
 1874      6365 206E 
 1874      6F74 2063 
 1874      6F6E 6E65 
 1874      6374 6564 
 1877               	__c.4524:
 1878 0196 1B5B 3336 		.string	"\033[36m\tGot device info of %d bytes.\r\n\033[37m"
 1878      6D09 476F 
 1878      7420 6465 
 1878      7669 6365 
 1878      2069 6E66 
 1881               	__c.4520:
 1882 01c0 4465 7669 		.string	"Device not connected.\r\n"
 1882      6365 206E 
 1882      6F74 2063 
 1882      6F6E 6E65 
 1882      6374 6564 
 1885               	__c.4492:
 1886 01d8 0928 2D29 		.string	"\t(-) 0x%04x\r\n"
 1886      2030 7825 
 1886      3034 780D 
 1886      0A00 
 1889               	__c.4490:
 1890 01e6 0925 6420 		.string	"\t%d values array\r\n"
 1890      7661 6C75 
 1890      6573 2061 
 1890      7272 6179 
 1890      0D0A 00
 1893               	__c.4452:
 1894 01f9 2563 00   		.string	"%c"
 1897               	__c.4450:
 1898 01fc 286C 656E 		.string	"(len.%d)"
 1898      2E25 6429 
 1898      00
 1971               	.Letext0:
DEFINED SYMBOLS
                            *ABS*:00000000 CameraControl_DeviceInfo.c
C:\Users\david\AppData\Local\Temp\ccb1Vt0P.s:2      *ABS*:0000003f __SREG__
C:\Users\david\AppData\Local\Temp\ccb1Vt0P.s:3      *ABS*:0000003e __SP_H__
C:\Users\david\AppData\Local\Temp\ccb1Vt0P.s:4      *ABS*:0000003d __SP_L__
C:\Users\david\AppData\Local\Temp\ccb1Vt0P.s:5      *ABS*:00000034 __CCP__
C:\Users\david\AppData\Local\Temp\ccb1Vt0P.s:6      *ABS*:00000000 __tmp_reg__
C:\Users\david\AppData\Local\Temp\ccb1Vt0P.s:7      *ABS*:00000001 __zero_reg__
C:\Users\david\AppData\Local\Temp\ccb1Vt0P.s:19     .text.CameraControl_DeviceInfo_PrintString:00000000 CameraControl_DeviceInfo_PrintString
C:\Users\david\AppData\Local\Temp\ccb1Vt0P.s:1897   .progmem.data:000001fc __c.4450
C:\Users\david\AppData\Local\Temp\ccb1Vt0P.s:1893   .progmem.data:000001f9 __c.4452
C:\Users\david\AppData\Local\Temp\ccb1Vt0P.s:144    .text.CameraControl_DeviceInfo_CopyString:00000000 CameraControl_DeviceInfo_CopyString
C:\Users\david\AppData\Local\Temp\ccb1Vt0P.s:277    .text.CameraControl_DeviceInfo_CopyArray:00000000 CameraControl_DeviceInfo_CopyArray
C:\Users\david\AppData\Local\Temp\ccb1Vt0P.s:532    .text.CameraControl_DeviceInfo_PrintArray:00000000 CameraControl_DeviceInfo_PrintArray
C:\Users\david\AppData\Local\Temp\ccb1Vt0P.s:1889   .progmem.data:000001e6 __c.4490
C:\Users\david\AppData\Local\Temp\ccb1Vt0P.s:1885   .progmem.data:000001d8 __c.4492
C:\Users\david\AppData\Local\Temp\ccb1Vt0P.s:682    .text.CameraControl_DeviceInfo_Parse:00000000 CameraControl_DeviceInfo_Parse
C:\Users\david\AppData\Local\Temp\ccb1Vt0P.s:1776   .bss:00000000 g_nStage
C:\Users\david\AppData\Local\Temp\ccb1Vt0P.s:1788   .bss:00000002 g_stDeviceInfo
C:\Users\david\AppData\Local\Temp\ccb1Vt0P.s:986    .text.CameraControl_DeviceInfo_GetInfo:00000000 CameraControl_DeviceInfo_GetInfo
C:\Users\david\AppData\Local\Temp\ccb1Vt0P.s:1881   .progmem.data:000001c0 __c.4520
C:\Users\david\AppData\Local\Temp\ccb1Vt0P.s:1877   .progmem.data:00000196 __c.4524
C:\Users\david\AppData\Local\Temp\ccb1Vt0P.s:1782   .bss:00000001 g_iDataIsValid
C:\Users\david\AppData\Local\Temp\ccb1Vt0P.s:1177   .text.CameraControl_DeviceInfo_Printout:00000000 CameraControl_DeviceInfo_Printout
C:\Users\david\AppData\Local\Temp\ccb1Vt0P.s:1873   .progmem.data:0000017e __c.4532
C:\Users\david\AppData\Local\Temp\ccb1Vt0P.s:1869   .progmem.data:00000162 __c.4534
C:\Users\david\AppData\Local\Temp\ccb1Vt0P.s:1865   .progmem.data:00000153 __c.4536
C:\Users\david\AppData\Local\Temp\ccb1Vt0P.s:1861   .progmem.data:00000140 __c.4538
C:\Users\david\AppData\Local\Temp\ccb1Vt0P.s:1857   .progmem.data:0000012c __c.4540
C:\Users\david\AppData\Local\Temp\ccb1Vt0P.s:1853   .progmem.data:00000115 __c.4542
C:\Users\david\AppData\Local\Temp\ccb1Vt0P.s:1849   .progmem.data:00000105 __c.4544
C:\Users\david\AppData\Local\Temp\ccb1Vt0P.s:1845   .progmem.data:000000eb __c.4548
C:\Users\david\AppData\Local\Temp\ccb1Vt0P.s:1841   .progmem.data:000000dd __c.4550
C:\Users\david\AppData\Local\Temp\ccb1Vt0P.s:1837   .progmem.data:000000c7 __c.4557
C:\Users\david\AppData\Local\Temp\ccb1Vt0P.s:1833   .progmem.data:000000b9 __c.4559
C:\Users\david\AppData\Local\Temp\ccb1Vt0P.s:1829   .progmem.data:00000098 __c.4566
C:\Users\david\AppData\Local\Temp\ccb1Vt0P.s:1825   .progmem.data:0000008a __c.4568
C:\Users\david\AppData\Local\Temp\ccb1Vt0P.s:1821   .progmem.data:00000075 __c.4575
C:\Users\david\AppData\Local\Temp\ccb1Vt0P.s:1817   .progmem.data:00000067 __c.4577
C:\Users\david\AppData\Local\Temp\ccb1Vt0P.s:1813   .progmem.data:00000054 __c.4584
C:\Users\david\AppData\Local\Temp\ccb1Vt0P.s:1809   .progmem.data:00000046 __c.4586
C:\Users\david\AppData\Local\Temp\ccb1Vt0P.s:1805   .progmem.data:00000031 __c.4591
C:\Users\david\AppData\Local\Temp\ccb1Vt0P.s:1801   .progmem.data:00000024 __c.4593
C:\Users\david\AppData\Local\Temp\ccb1Vt0P.s:1797   .progmem.data:00000012 __c.4595
C:\Users\david\AppData\Local\Temp\ccb1Vt0P.s:1793   .progmem.data:00000000 __c.4597

UNDEFINED SYMBOLS
printf_P
__ashldi3
USB_HostState
CameraControl_InitiateTransaction
SI_Host_ReadData
CameraControl_GetResponseAndCheck
__lshrdi3
__do_clear_bss
