   1               		.file	"MassStorage.c"
   2               	__SREG__ = 0x3f
   3               	__SP_H__ = 0x3e
   4               	__SP_L__ = 0x3d
   5               	__CCP__ = 0x34
   6               	__tmp_reg__ = 0
   7               	__zero_reg__ = 1
  15               	.Ltext0:
  16               		.section	.text.DCOMP_MS_Host_NextMSInterface,"ax",@progbits
  18               	DCOMP_MS_Host_NextMSInterface:
  19               	.LFB126:
  20               	.LSM0:
  21               	.LVL0:
  22               	/* prologue: function */
  23               	/* frame size = 0 */
  24               	/* stack size = 0 */
  25               	.L__stack_usage = 0
  26 0000 FC01      		movw r30,r24
  27               	.LVL1:
  28               	.LSM1:
  29 0002 8181      		ldd r24,Z+1
  30               	.LVL2:
  31 0004 8430      		cpi r24,lo8(4)
  32 0006 01F4      		brne .L5
  33               	.LVL3:
  34               	.LBB99:
  35               	.LSM2:
  36 0008 8581      		ldd r24,Z+5
  37 000a 8830      		cpi r24,lo8(8)
  38 000c 01F4      		brne .L5
  39               	.LSM3:
  40 000e 8681      		ldd r24,Z+6
  41 0010 8630      		cpi r24,lo8(6)
  42 0012 01F4      		brne .L5
  43               	.LSM4:
  44 0014 8781      		ldd r24,Z+7
  45 0016 8035      		cpi r24,lo8(80)
  46 0018 01F0      		breq .L6
  47               	.LVL4:
  48               	.L5:
  49               	.LSM5:
  50 001a 82E0      		ldi r24,lo8(2)
  51 001c 0895      		ret
  52               	.LVL5:
  53               	.L6:
  54               	.LSM6:
  55 001e 80E0      		ldi r24,lo8(0)
  56               	.LBE99:
  57               	.LSM7:
  58 0020 0895      		ret
  59               	.LFE126:
  61               		.section	.text.MS_Host_WaitForDataReceived,"ax",@progbits
  63               	MS_Host_WaitForDataReceived:
  64               	.LFB129:
  65               	.LSM8:
  66               	.LVL6:
  67               	/* prologue: function */
  68               	/* frame size = 0 */
  69               	/* stack size = 0 */
  70               	.L__stack_usage = 0
  71 0000 FC01      		movw r30,r24
  72               	.LVL7:
  73               	.LBB100:
  74               	.LBB101:
  75               	.LSM9:
  76 0002 2091 A200 		lds r18,162
  77 0006 3091 A300 		lds r19,162+1
  78               	.LBE101:
  79               	.LBE100:
  80               	.LSM10:
  81 000a 8081      		ld r24,Z
  82               	.LVL8:
  83               	.LBB102:
  84               	.LBB103:
  85               	.LSM11:
  86 000c 8093 A700 		sts 167,r24
  87               	.LBE103:
  88               	.LBE102:
  89               	.LBB104:
  90               	.LBB105:
  91               	.LSM12:
  92 0010 8091 A900 		lds r24,169
  93 0014 8F7B      		andi r24,lo8(-65)
  94 0016 8093 A900 		sts 169,r24
  95               	.LBE105:
  96               	.LBE104:
  97               	.LSM13:
  98 001a 80E1      		ldi r24,lo8(10000)
  99 001c 97E2      		ldi r25,hi8(10000)
 100               	.LSM14:
 101 001e 00C0      		rjmp .L8
 102               	.LVL9:
 103               	.L15:
 104               	.LBB106:
 105               	.LBB127:
 106               	.LBB128:
 107               	.LSM15:
 108 0020 4091 A200 		lds r20,162
 109 0024 5091 A300 		lds r21,162+1
 110               	.LBE128:
 111               	.LBE127:
 112               	.LSM16:
 113 0028 4217      		cp r20,r18
 114 002a 5307      		cpc r21,r19
 115 002c 01F0      		breq .L9
 116               	.LVL10:
 117               	.LSM17:
 118 002e 0097      		sbiw r24,0
 119 0030 01F4      		brne .+2
 120 0032 00C0      		rjmp .L16
 121 0034 0197      		sbiw r24,1
 122               	.LVL11:
 123 0036 9A01      		movw r18,r20
 124               	.LVL12:
 125               	.L9:
 126               	.LBB125:
 127               	.LBB126:
 128               	.LSM18:
 129 0038 4091 A900 		lds r20,169
 130 003c 4064      		ori r20,lo8(64)
 131 003e 4093 A900 		sts 169,r20
 132               	.LBE126:
 133               	.LBE125:
 134               	.LSM19:
 135 0042 4281      		ldd r20,Z+2
 136               	.LVL13:
 137               	.LBB123:
 138               	.LBB124:
 139               	.LSM20:
 140 0044 4093 A700 		sts 167,r20
 141               	.LBE124:
 142               	.LBE123:
 143               	.LBB121:
 144               	.LBB122:
 145               	.LSM21:
 146 0048 4091 A900 		lds r20,169
 147 004c 4F7B      		andi r20,lo8(-65)
 148 004e 4093 A900 		sts 169,r20
 149               	.LBE122:
 150               	.LBE121:
 151               	.LBB119:
 152               	.LBB120:
 153               	.LSM22:
 154 0052 4091 A600 		lds r20,166
 155               	.LBE120:
 156               	.LBE119:
 157               	.LSM23:
 158 0056 41FD      		sbrc r20,1
 159 0058 00C0      		rjmp .L22
 160               	.L11:
 161               	.LBB117:
 162               	.LBB118:
 163               	.LSM24:
 164 005a 4091 A900 		lds r20,169
 165 005e 4064      		ori r20,lo8(64)
 166 0060 4093 A900 		sts 169,r20
 167               	.LBE118:
 168               	.LBE117:
 169               	.LSM25:
 170 0064 4081      		ld r20,Z
 171               	.LVL14:
 172               	.LBB115:
 173               	.LBB116:
 174               	.LSM26:
 175 0066 4093 A700 		sts 167,r20
 176               	.LBE116:
 177               	.LBE115:
 178               	.LBB113:
 179               	.LBB114:
 180               	.LSM27:
 181 006a 4091 A900 		lds r20,169
 182 006e 4F7B      		andi r20,lo8(-65)
 183 0070 4093 A900 		sts 169,r20
 184               	.LBE114:
 185               	.LBE113:
 186               	.LBB111:
 187               	.LBB112:
 188               	.LSM28:
 189 0074 4091 A600 		lds r20,166
 190               	.LBE112:
 191               	.LBE111:
 192               	.LSM29:
 193 0078 41FF      		sbrs r20,1
 194 007a 00C0      		rjmp .L13
 195               	.LVL15:
 196               	.L22:
 197               	.LBB107:
 198               	.LBB108:
 199               	.LSM30:
 200 007c 8091 AA00 		lds r24,170
 201               	.LVL16:
 202 0080 8F70      		andi r24,lo8(15)
 203               	.LBB109:
 204               	.LBB110:
 205               	.LSM31:
 206 0082 9091 AA00 		lds r25,170
 207 0086 9073      		andi r25,lo8(48)
 208               	.LBE110:
 209               	.LBE109:
 210               	.LSM32:
 211 0088 9031      		cpi r25,lo8(16)
 212 008a 01F4      		brne .L18
 213 008c 90E8      		ldi r25,lo8(-128)
 214 008e 00C0      		rjmp .L14
 215               	.L18:
 216 0090 90E0      		ldi r25,lo8(0)
 217               	.L14:
 218               	.LBE108:
 219               	.LBE107:
 220               	.LSM33:
 221 0092 892B      		or r24,r25
 222 0094 0E94 0000 		call USB_Host_ClearEndpointStall
 223               	.LVL17:
 224               	.LSM34:
 225 0098 81E0      		ldi r24,lo8(1)
 226 009a 0895      		ret
 227               	.LVL18:
 228               	.L13:
 229               	.LSM35:
 230 009c 4091 0000 		lds r20,USB_HostState
 231 00a0 4130      		cpi r20,lo8(1)
 232 00a2 01F0      		breq .L19
 233               	.LVL19:
 234               	.L8:
 235               	.LBE106:
 236               	.LBB129:
 237               	.LBB130:
 238               	.LSM36:
 239 00a4 4091 A600 		lds r20,166
 240               	.LBE130:
 241               	.LBE129:
 242               	.LSM37:
 243 00a8 40FF      		sbrs r20,0
 244 00aa 00C0      		rjmp .L15
 245               	.LSM38:
 246 00ac 8081      		ld r24,Z
 247               	.LVL20:
 248               	.LBB131:
 249               	.LBB132:
 250               	.LSM39:
 251 00ae 8093 A700 		sts 167,r24
 252               	.LBE132:
 253               	.LBE131:
 254               	.LBB133:
 255               	.LBB134:
 256               	.LSM40:
 257 00b2 8091 A900 		lds r24,169
 258 00b6 8064      		ori r24,lo8(64)
 259 00b8 8093 A900 		sts 169,r24
 260               	.LBE134:
 261               	.LBE133:
 262               	.LSM41:
 263 00bc 8281      		ldd r24,Z+2
 264               	.LVL21:
 265               	.LBB135:
 266               	.LBB136:
 267               	.LSM42:
 268 00be 8093 A700 		sts 167,r24
 269               	.LBE136:
 270               	.LBE135:
 271               	.LBB137:
 272               	.LBB138:
 273               	.LSM43:
 274 00c2 8091 A900 		lds r24,169
 275 00c6 8064      		ori r24,lo8(64)
 276 00c8 8093 A900 		sts 169,r24
 277               	.LBE138:
 278               	.LBE137:
 279               	.LSM44:
 280 00cc 80E0      		ldi r24,lo8(0)
 281 00ce 0895      		ret
 282               	.LVL22:
 283               	.L16:
 284               	.LBB139:
 285               	.LSM45:
 286 00d0 83E0      		ldi r24,lo8(3)
 287               	.LVL23:
 288 00d2 0895      		ret
 289               	.LVL24:
 290               	.L19:
 291               	.LSM46:
 292 00d4 82E0      		ldi r24,lo8(2)
 293               	.LVL25:
 294               	.LBE139:
 295               	.LSM47:
 296 00d6 0895      		ret
 297               	.LFE129:
 299               		.section	.text.MS_Host_SendCommand,"ax",@progbits
 301               	MS_Host_SendCommand:
 302               	.LFB128:
 303               	.LSM48:
 304               	.LVL26:
 305 0000 AF92      		push r10
 306 0002 BF92      		push r11
 307 0004 DF92      		push r13
 308 0006 EF92      		push r14
 309 0008 FF92      		push r15
 310 000a 0F93      		push r16
 311 000c 1F93      		push r17
 312 000e DF93      		push r29
 313 0010 CF93      		push r28
 314 0012 00D0      		rcall .
 315 0014 CDB7      		in r28,__SP_L__
 316 0016 DEB7      		in r29,__SP_H__
 317               	/* prologue: function */
 318               	/* frame size = 2 */
 319               	/* stack size = 11 */
 320               	.L__stack_usage = 11
 321 0018 5C01      		movw r10,r24
 322 001a 8B01      		movw r16,r22
 323 001c 7A01      		movw r14,r20
 324               	.LVL27:
 325               	.LSM49:
 326 001e FC01      		movw r30,r24
 327 0020 8285      		ldd r24,Z+10
 328 0022 9385      		ldd r25,Z+11
 329 0024 A485      		ldd r26,Z+12
 330 0026 B585      		ldd r27,Z+13
 331               	.LVL28:
 332 0028 0196      		adiw r24,1
 333 002a A11D      		adc r26,__zero_reg__
 334 002c B11D      		adc r27,__zero_reg__
 335 002e 8287      		std Z+10,r24
 336 0030 9387      		std Z+11,r25
 337 0032 A487      		std Z+12,r26
 338 0034 B587      		std Z+13,r27
 339 0036 8F3F      		cpi r24,lo8(-1)
 340 0038 FFEF      		ldi r31,hi8(-1)
 341 003a 9F07      		cpc r25,r31
 342 003c FFEF      		ldi r31,hlo8(-1)
 343 003e AF07      		cpc r26,r31
 344 0040 FFEF      		ldi r31,hhi8(-1)
 345 0042 BF07      		cpc r27,r31
 346 0044 01F4      		brne .L24
 347               	.LVL29:
 348               	.LSM50:
 349 0046 81E0      		ldi r24,lo8(1)
 350 0048 90E0      		ldi r25,hi8(1)
 351 004a A0E0      		ldi r26,hlo8(1)
 352 004c B0E0      		ldi r27,hhi8(1)
 353 004e F501      		movw r30,r10
 354 0050 8287      		std Z+10,r24
 355 0052 9387      		std Z+11,r25
 356 0054 A487      		std Z+12,r26
 357 0056 B587      		std Z+13,r27
 358               	.L24:
 359               	.LSM51:
 360 0058 85E5      		ldi r24,lo8(1128420181)
 361 005a 93E5      		ldi r25,hi8(1128420181)
 362 005c A2E4      		ldi r26,hlo8(1128420181)
 363 005e B3E4      		ldi r27,hhi8(1128420181)
 364 0060 F801      		movw r30,r16
 365 0062 8083      		st Z,r24
 366 0064 9183      		std Z+1,r25
 367 0066 A283      		std Z+2,r26
 368 0068 B383      		std Z+3,r27
 369               	.LSM52:
 370 006a F501      		movw r30,r10
 371 006c 8285      		ldd r24,Z+10
 372 006e 9385      		ldd r25,Z+11
 373 0070 A485      		ldd r26,Z+12
 374 0072 B585      		ldd r27,Z+13
 375 0074 F801      		movw r30,r16
 376 0076 8483      		std Z+4,r24
 377 0078 9583      		std Z+5,r25
 378 007a A683      		std Z+6,r26
 379 007c B783      		std Z+7,r27
 380               	.LSM53:
 381 007e F501      		movw r30,r10
 382 0080 8281      		ldd r24,Z+2
 383               	.LVL30:
 384               	.LBB170:
 385               	.LBB171:
 386               	.LSM54:
 387 0082 8093 A700 		sts 167,r24
 388               	.LBE171:
 389               	.LBE170:
 390               	.LBB172:
 391               	.LBB173:
 392               	.LSM55:
 393 0086 8091 A900 		lds r24,169
 394 008a 8F7B      		andi r24,lo8(-65)
 395 008c 8093 A900 		sts 169,r24
 396               	.LBE173:
 397               	.LBE172:
 398               	.LSM56:
 399 0090 C801      		movw r24,r16
 400 0092 6FE1      		ldi r22,lo8(31)
 401 0094 70E0      		ldi r23,hi8(31)
 402 0096 40E0      		ldi r20,lo8(0)
 403 0098 50E0      		ldi r21,hi8(0)
 404 009a 0E94 0000 		call Pipe_Write_Stream_LE
 405               	.LVL31:
 406 009e D82E      		mov r13,r24
 407               	.LVL32:
 408 00a0 8823      		tst r24
 409 00a2 01F0      		breq .+2
 410 00a4 00C0      		rjmp .L25
 411               	.LBB174:
 412               	.LBB175:
 413               	.LSM57:
 414 00a6 8091 A600 		lds r24,166
 415               	.LVL33:
 416 00aa 8B77      		andi r24,lo8(123)
 417 00ac 8093 A600 		sts 166,r24
 418               	.LBE175:
 419               	.LBE174:
 420               	.LSM58:
 421 00b0 0E94 0000 		call Pipe_WaitUntilReady
 422               	.LBB176:
 423               	.LBB177:
 424               	.LSM59:
 425 00b4 8091 A900 		lds r24,169
 426 00b8 8064      		ori r24,lo8(64)
 427 00ba 8093 A900 		sts 169,r24
 428               	.LBE177:
 429               	.LBE176:
 430               	.LSM60:
 431 00be E114      		cp r14,__zero_reg__
 432 00c0 F104      		cpc r15,__zero_reg__
 433 00c2 01F4      		brne .+2
 434 00c4 00C0      		rjmp .L25
 435               	.LVL34:
 436               	.LBB178:
 437               	.LBB179:
 438               	.LSM61:
 439 00c6 F801      		movw r30,r16
 440 00c8 6085      		ldd r22,Z+8
 441 00ca 7185      		ldd r23,Z+9
 442               	.LVL35:
 443               	.LSM62:
 444 00cc 8485      		ldd r24,Z+12
 445 00ce 87FF      		sbrs r24,7
 446 00d0 00C0      		rjmp .L26
 447               	.LSM63:
 448 00d2 C501      		movw r24,r10
 449 00d4 6983      		std Y+1,r22
 450 00d6 7A83      		std Y+2,r23
 451 00d8 0E94 0000 		call MS_Host_WaitForDataReceived
 452               	.LVL36:
 453 00dc 6981      		ldd r22,Y+1
 454 00de 7A81      		ldd r23,Y+2
 455 00e0 8823      		tst r24
 456 00e2 01F0      		breq .L27
 457               	.LBB180:
 458               	.LBB181:
 459               	.LSM64:
 460 00e4 9091 A900 		lds r25,169
 461 00e8 9064      		ori r25,lo8(64)
 462 00ea 9093 A900 		sts 169,r25
 463 00ee 00C0      		rjmp .L28
 464               	.L27:
 465               	.LBE181:
 466               	.LBE180:
 467               	.LSM65:
 468 00f0 F501      		movw r30,r10
 469 00f2 8081      		ld r24,Z
 470               	.LVL37:
 471               	.LBB182:
 472               	.LBB183:
 473               	.LSM66:
 474 00f4 8093 A700 		sts 167,r24
 475               	.LBE183:
 476               	.LBE182:
 477               	.LBB184:
 478               	.LBB185:
 479               	.LSM67:
 480 00f8 8091 A900 		lds r24,169
 481 00fc 8F7B      		andi r24,lo8(-65)
 482 00fe 8093 A900 		sts 169,r24
 483               	.LBE185:
 484               	.LBE184:
 485               	.LSM68:
 486 0102 C701      		movw r24,r14
 487 0104 40E0      		ldi r20,lo8(0)
 488 0106 50E0      		ldi r21,hi8(0)
 489 0108 0E94 0000 		call Pipe_Read_Stream_LE
 490               	.LVL38:
 491 010c 8823      		tst r24
 492 010e 01F4      		brne .L28
 493               	.LBB186:
 494               	.LBB187:
 495               	.LSM69:
 496 0110 8091 A600 		lds r24,166
 497               	.LVL39:
 498 0114 8E77      		andi r24,lo8(126)
 499 0116 8093 A600 		sts 166,r24
 500 011a 00C0      		rjmp .L29
 501               	.LVL40:
 502               	.L26:
 503               	.LBE187:
 504               	.LBE186:
 505               	.LSM70:
 506 011c F501      		movw r30,r10
 507 011e 8281      		ldd r24,Z+2
 508               	.LVL41:
 509               	.LBB188:
 510               	.LBB189:
 511               	.LSM71:
 512 0120 8093 A700 		sts 167,r24
 513               	.LBE189:
 514               	.LBE188:
 515               	.LBB190:
 516               	.LBB191:
 517               	.LSM72:
 518 0124 8091 A900 		lds r24,169
 519 0128 8F7B      		andi r24,lo8(-65)
 520 012a 8093 A900 		sts 169,r24
 521               	.LBE191:
 522               	.LBE190:
 523               	.LSM73:
 524 012e C701      		movw r24,r14
 525 0130 40E0      		ldi r20,lo8(0)
 526 0132 50E0      		ldi r21,hi8(0)
 527 0134 0E94 0000 		call Pipe_Write_Stream_LE
 528               	.LVL42:
 529 0138 8823      		tst r24
 530 013a 01F4      		brne .L28
 531               	.LBB192:
 532               	.LBB193:
 533               	.LSM74:
 534 013c 8091 A600 		lds r24,166
 535               	.LVL43:
 536 0140 8B77      		andi r24,lo8(123)
 537 0142 8093 A600 		sts 166,r24
 538 0146 00C0      		rjmp .L30
 539               	.L31:
 540               	.LBE193:
 541               	.LBE192:
 542               	.LSM75:
 543 0148 8091 0000 		lds r24,USB_HostState
 544 014c 8130      		cpi r24,lo8(1)
 545 014e 01F0      		breq .L32
 546               	.L30:
 547               	.LBB194:
 548               	.LBB195:
 549               	.LSM76:
 550 0150 8091 A600 		lds r24,166
 551               	.LBE195:
 552               	.LBE194:
 553               	.LSM77:
 554 0154 82FF      		sbrs r24,2
 555 0156 00C0      		rjmp .L31
 556               	.L29:
 557               	.LVL44:
 558               	.LBB196:
 559               	.LBB197:
 560               	.LSM78:
 561 0158 8091 A900 		lds r24,169
 562 015c 8064      		ori r24,lo8(64)
 563 015e 8093 A900 		sts 169,r24
 564               	.LVL45:
 565 0162 00C0      		rjmp .L25
 566               	.LVL46:
 567               	.L32:
 568               	.LBE197:
 569               	.LBE196:
 570               	.LSM79:
 571 0164 82E0      		ldi r24,lo8(2)
 572               	.L28:
 573               	.LVL47:
 574               	.LBE179:
 575               	.LBE178:
 576               	.LBB198:
 577               	.LBB199:
 578               	.LSM80:
 579 0166 9091 A900 		lds r25,169
 580 016a 9064      		ori r25,lo8(64)
 581 016c 9093 A900 		sts 169,r25
 582               	.LBE199:
 583               	.LBE198:
 584               	.LSM81:
 585 0170 D82E      		mov r13,r24
 586               	.LVL48:
 587               	.L25:
 588               	.LSM82:
 589 0172 8D2D      		mov r24,r13
 590               	/* epilogue start */
 591 0174 0F90      		pop __tmp_reg__
 592 0176 0F90      		pop __tmp_reg__
 593 0178 CF91      		pop r28
 594 017a DF91      		pop r29
 595 017c 1F91      		pop r17
 596 017e 0F91      		pop r16
 597               	.LVL49:
 598 0180 FF90      		pop r15
 599 0182 EF90      		pop r14
 600               	.LVL50:
 601 0184 DF90      		pop r13
 602 0186 BF90      		pop r11
 603 0188 AF90      		pop r10
 604               	.LVL51:
 605 018a 0895      		ret
 606               	.LFE128:
 608               		.section	.text.MS_Host_GetReturnedStatus,"ax",@progbits
 610               	MS_Host_GetReturnedStatus:
 611               	.LFB131:
 612               	.LSM83:
 613               	.LVL52:
 614 0000 0F93      		push r16
 615 0002 1F93      		push r17
 616 0004 CF93      		push r28
 617 0006 DF93      		push r29
 618               	/* prologue: function */
 619               	/* frame size = 0 */
 620               	/* stack size = 4 */
 621               	.L__stack_usage = 4
 622 0008 EC01      		movw r28,r24
 623 000a 8B01      		movw r16,r22
 624               	.LVL53:
 625               	.LSM84:
 626 000c 0E94 0000 		call MS_Host_WaitForDataReceived
 627               	.LVL54:
 628 0010 8823      		tst r24
 629 0012 01F4      		brne .L34
 630               	.LSM85:
 631 0014 8881      		ld r24,Y
 632               	.LVL55:
 633               	.LBB200:
 634               	.LBB201:
 635               	.LSM86:
 636 0016 8093 A700 		sts 167,r24
 637               	.LBE201:
 638               	.LBE200:
 639               	.LBB202:
 640               	.LBB203:
 641               	.LSM87:
 642 001a 8091 A900 		lds r24,169
 643 001e 8F7B      		andi r24,lo8(-65)
 644 0020 8093 A900 		sts 169,r24
 645               	.LBE203:
 646               	.LBE202:
 647               	.LSM88:
 648 0024 C801      		movw r24,r16
 649 0026 6DE0      		ldi r22,lo8(13)
 650 0028 70E0      		ldi r23,hi8(13)
 651 002a 40E0      		ldi r20,lo8(0)
 652 002c 50E0      		ldi r21,hi8(0)
 653 002e 0E94 0000 		call Pipe_Read_Stream_LE
 654               	.LVL56:
 655 0032 8823      		tst r24
 656 0034 01F4      		brne .L34
 657               	.LBB204:
 658               	.LBB205:
 659               	.LSM89:
 660 0036 9091 A600 		lds r25,166
 661 003a 9E77      		andi r25,lo8(126)
 662 003c 9093 A600 		sts 166,r25
 663               	.LBE205:
 664               	.LBE204:
 665               	.LBB206:
 666               	.LBB207:
 667               	.LSM90:
 668 0040 9091 A900 		lds r25,169
 669 0044 9064      		ori r25,lo8(64)
 670 0046 9093 A900 		sts 169,r25
 671               	.LBE207:
 672               	.LBE206:
 673               	.LSM91:
 674 004a F801      		movw r30,r16
 675 004c 9485      		ldd r25,Z+12
 676 004e 9111      		cpse r25,__zero_reg__
 677               	.LSM92:
 678 0050 80E8      		ldi r24,lo8(-128)
 679               	.LVL57:
 680               	.L34:
 681               	/* epilogue start */
 682               	.LSM93:
 683 0052 DF91      		pop r29
 684 0054 CF91      		pop r28
 685               	.LVL58:
 686 0056 1F91      		pop r17
 687 0058 0F91      		pop r16
 688               	.LVL59:
 689 005a 0895      		ret
 690               	.LFE131:
 692               		.section	.text.DCOMP_MS_Host_NextMSInterfaceEndpoint,"ax",@progbits
 694               	DCOMP_MS_Host_NextMSInterfaceEndpoint:
 695               	.LFB127:
 696               	.LSM94:
 697               	.LVL60:
 698               	/* prologue: function */
 699               	/* frame size = 0 */
 700               	/* stack size = 0 */
 701               	.L__stack_usage = 0
 702 0000 FC01      		movw r30,r24
 703               	.LVL61:
 704               	.LSM95:
 705 0002 8181      		ldd r24,Z+1
 706               	.LVL62:
 707 0004 8530      		cpi r24,lo8(5)
 708 0006 01F4      		brne .L37
 709               	.LVL63:
 710               	.LBB208:
 711               	.LSM96:
 712 0008 8381      		ldd r24,Z+3
 713 000a 8370      		andi r24,lo8(3)
 714               	.LSM97:
 715 000c 8230      		cpi r24,lo8(2)
 716 000e 01F4      		brne .L39
 717               	.LSM98:
 718 0010 8281      		ldd r24,Z+2
 719 0012 0E94 0000 		call Pipe_IsEndpointBound
 720               	.LVL64:
 721 0016 8823      		tst r24
 722 0018 01F4      		brne .L39
 723 001a 00C0      		rjmp .L40
 724               	.LVL65:
 725               	.L37:
 726               	.LBE208:
 727               	.LSM99:
 728 001c 8430      		cpi r24,lo8(4)
 729 001e 01F0      		breq .L41
 730               	.LVL66:
 731               	.L39:
 732               	.LBB209:
 733               	.LSM100:
 734 0020 82E0      		ldi r24,lo8(2)
 735 0022 0895      		ret
 736               	.L40:
 737               	.LSM101:
 738 0024 80E0      		ldi r24,lo8(0)
 739 0026 0895      		ret
 740               	.LVL67:
 741               	.L41:
 742               	.LBE209:
 743               	.LSM102:
 744 0028 81E0      		ldi r24,lo8(1)
 745               	.LSM103:
 746 002a 0895      		ret
 747               	.LFE127:
 749               		.section	.text.MS_Host_ConfigurePipes,"ax",@progbits
 750               	.global	MS_Host_ConfigurePipes
 752               	MS_Host_ConfigurePipes:
 753               	.LFB125:
 754               	.LSM104:
 755               	.LVL68:
 756 0000 6F92      		push r6
 757 0002 7F92      		push r7
 758 0004 8F92      		push r8
 759 0006 9F92      		push r9
 760 0008 AF92      		push r10
 761 000a BF92      		push r11
 762 000c CF92      		push r12
 763 000e DF92      		push r13
 764 0010 EF92      		push r14
 765 0012 FF92      		push r15
 766 0014 0F93      		push r16
 767 0016 1F93      		push r17
 768 0018 DF93      		push r29
 769 001a CF93      		push r28
 770 001c 00D0      		rcall .
 771 001e 00D0      		rcall .
 772 0020 0F92      		push __tmp_reg__
 773 0022 CDB7      		in r28,__SP_L__
 774 0024 DEB7      		in r29,__SP_H__
 775               	/* prologue: function */
 776               	/* frame size = 5 */
 777               	/* stack size = 19 */
 778               	.L__stack_usage = 19
 779 0026 6C01      		movw r12,r24
 780 0028 7A83      		std Y+2,r23
 781 002a 6983      		std Y+1,r22
 782 002c 5C83      		std Y+4,r21
 783 002e 4B83      		std Y+3,r20
 784               	.LVL69:
 785               	.LSM105:
 786 0030 0496      		adiw r24,4
 787               	.LVL70:
 788 0032 FC01      		movw r30,r24
 789 0034 8AE0      		ldi r24,lo8(10)
 790 0036 DF01      		movw r26,r30
 791 0038 1D92      		st X+,__zero_reg__
 792 003a 8A95      	        dec r24
 793 003c 01F4      		brne .-6
 794               	.LSM106:
 795 003e EB81      		ldd r30,Y+3
 796 0040 FC81      		ldd r31,Y+4
 797 0042 8181      		ldd r24,Z+1
 798 0044 8230      		cpi r24,lo8(2)
 799 0046 01F0      		breq .+2
 800 0048 00C0      		rjmp .L54
 801 004a 6624      		clr r6
 802 004c 7724      		clr r7
 803 004e AA24      		clr r10
 804 0050 BB24      		clr r11
 805 0052 8824      		clr r8
 806 0054 9924      		clr r9
 807               	.LBB210:
 808               	.LSM107:
 809 0056 83E0      		ldi r24,lo8(3)
 810 0058 E82E      		mov r14,r24
 811 005a F12C      		mov r15,__zero_reg__
 812 005c EC0E      		add r14,r28
 813 005e FD1E      		adc r15,r29
 814 0060 8E01      		movw r16,r28
 815 0062 0F5F      		subi r16,lo8(-(1))
 816 0064 1F4F      		sbci r17,hi8(-(1))
 817               	.LVL71:
 818               	.L62:
 819               	.LSM108:
 820 0066 6114      		cp r6,__zero_reg__
 821 0068 7104      		cpc r7,__zero_reg__
 822 006a 01F0      		breq .L45
 823               	.LSM109:
 824 006c C801      		movw r24,r16
 825 006e B701      		movw r22,r14
 826               	.LVL72:
 827 0070 40E0      		ldi r20,lo8(gs(DCOMP_MS_Host_NextMSInterfaceEndpoint))
 828 0072 50E0      		ldi r21,hi8(gs(DCOMP_MS_Host_NextMSInterfaceEndpoint))
 829               	.LVL73:
 830 0074 0E94 0000 		call USB_GetNextDescriptorComp
 831               	.LSM110:
 832 0078 8823      		tst r24
 833 007a 01F0      		breq .L46
 834               	.L45:
 835               	.LSM111:
 836 007c C801      		movw r24,r16
 837 007e B701      		movw r22,r14
 838 0080 40E0      		ldi r20,lo8(gs(DCOMP_MS_Host_NextMSInterface))
 839 0082 50E0      		ldi r21,hi8(gs(DCOMP_MS_Host_NextMSInterface))
 840 0084 0E94 0000 		call USB_GetNextDescriptorComp
 841 0088 8823      		tst r24
 842 008a 01F0      		breq .+2
 843 008c 00C0      		rjmp .L55
 844               	.LSM112:
 845 008e 6B80      		ldd r6,Y+3
 846 0090 7C80      		ldd r7,Y+4
 847               	.LVL74:
 848               	.LSM113:
 849 0092 AA24      		clr r10
 850 0094 BB24      		clr r11
 851               	.LSM114:
 852 0096 8824      		clr r8
 853 0098 9924      		clr r9
 854 009a 00C0      		rjmp .L62
 855               	.LVL75:
 856               	.L46:
 857               	.LSM115:
 858 009c EB81      		ldd r30,Y+3
 859 009e FC81      		ldd r31,Y+4
 860               	.LVL76:
 861               	.LSM116:
 862 00a0 8281      		ldd r24,Z+2
 863 00a2 87FF      		sbrs r24,7
 864 00a4 00C0      		rjmp .L56
 865               	.LSM117:
 866 00a6 4F01      		movw r8,r30
 867 00a8 00C0      		rjmp .L48
 868               	.L56:
 869               	.LSM118:
 870 00aa 5F01      		movw r10,r30
 871               	.L48:
 872               	.LVL77:
 873               	.LBE210:
 874               	.LSM119:
 875 00ac 8114      		cp r8,__zero_reg__
 876 00ae 9104      		cpc r9,__zero_reg__
 877 00b0 01F0      		breq .L62
 878               	.LSM120:
 879 00b2 A114      		cp r10,__zero_reg__
 880 00b4 B104      		cpc r11,__zero_reg__
 881 00b6 01F0      		breq .L62
 882               	.LVL78:
 883               	.LSM121:
 884 00b8 91E0      		ldi r25,lo8(1)
 885               	.LVL79:
 886               	.L53:
 887               	.LBB211:
 888               	.LBB212:
 889               	.LSM122:
 890 00ba F601      		movw r30,r12
 891 00bc 8081      		ld r24,Z
 892 00be 9817      		cp r25,r24
 893 00c0 01F4      		brne .L49
 894               	.LSM123:
 895 00c2 D401      		movw r26,r8
 896 00c4 1496      		adiw r26,4
 897 00c6 0D91      		ld r16,X+
 898 00c8 1C91      		ld r17,X
 899 00ca 1597      		sbiw r26,4+1
 900               	.LVL80:
 901               	.LSM124:
 902 00cc 1296      		adiw r26,2
 903 00ce 2C91      		ld r18,X
 904 00d0 1297      		sbiw r26,2
 905               	.LVL81:
 906               	.LSM125:
 907 00d2 8181      		ldd r24,Z+1
 908               	.LVL82:
 909               	.LSM126:
 910 00d4 1783      		std Z+7,r17
 911 00d6 0683      		std Z+6,r16
 912               	.LSM127:
 913 00d8 40E1      		ldi r20,lo8(16)
 914 00da 00C0      		rjmp .L50
 915               	.LVL83:
 916               	.L49:
 917               	.LSM128:
 918 00dc F601      		movw r30,r12
 919 00de 8281      		ldd r24,Z+2
 920 00e0 9817      		cp r25,r24
 921 00e2 01F4      		brne .L51
 922               	.LSM129:
 923 00e4 D501      		movw r26,r10
 924 00e6 1496      		adiw r26,4
 925 00e8 0D91      		ld r16,X+
 926 00ea 1C91      		ld r17,X
 927 00ec 1597      		sbiw r26,4+1
 928               	.LVL84:
 929               	.LSM130:
 930 00ee 1296      		adiw r26,2
 931 00f0 2C91      		ld r18,X
 932 00f2 1297      		sbiw r26,2
 933               	.LVL85:
 934               	.LSM131:
 935 00f4 8381      		ldd r24,Z+3
 936               	.LVL86:
 937               	.LSM132:
 938 00f6 1187      		std Z+9,r17
 939 00f8 0087      		std Z+8,r16
 940               	.LSM133:
 941 00fa 40E2      		ldi r20,lo8(32)
 942               	.LVL87:
 943               	.L50:
 944               	.LSM134:
 945 00fc 8823      		tst r24
 946 00fe 01F0      		breq .L57
 947 0100 34E0      		ldi r19,lo8(4)
 948 0102 00C0      		rjmp .L52
 949               	.L57:
 950 0104 30E0      		ldi r19,lo8(0)
 951               	.L52:
 952               	.LSM135:
 953 0106 892F      		mov r24,r25
 954               	.LVL88:
 955 0108 62E0      		ldi r22,lo8(2)
 956 010a E32E      		mov r14,r19
 957 010c 9D83      		std Y+5,r25
 958 010e 0E94 0000 		call Pipe_ConfigurePipe
 959               	.LVL89:
 960 0112 9D81      		ldd r25,Y+5
 961 0114 8823      		tst r24
 962 0116 01F0      		breq .L58
 963               	.LVL90:
 964               	.L51:
 965               	.LBE212:
 966               	.LSM136:
 967 0118 9F5F      		subi r25,lo8(-(1))
 968               	.LVL91:
 969 011a 9730      		cpi r25,lo8(7)
 970 011c 01F4      		brne .L53
 971               	.LBE211:
 972               	.LSM137:
 973 011e F301      		movw r30,r6
 974 0120 8281      		ldd r24,Z+2
 975 0122 D601      		movw r26,r12
 976 0124 1596      		adiw r26,5
 977 0126 8C93      		st X,r24
 978 0128 1597      		sbiw r26,5
 979               	.LSM138:
 980 012a 81E0      		ldi r24,lo8(1)
 981 012c 1496      		adiw r26,4
 982 012e 8C93      		st X,r24
 983 0130 1497      		sbiw r26,4
 984               	.LSM139:
 985 0132 80E0      		ldi r24,lo8(0)
 986 0134 00C0      		rjmp .L43
 987               	.LVL92:
 988               	.L54:
 989               	.LSM140:
 990 0136 81E0      		ldi r24,lo8(1)
 991 0138 00C0      		rjmp .L43
 992               	.LVL93:
 993               	.L55:
 994               	.LBB214:
 995               	.LSM141:
 996 013a 82E0      		ldi r24,lo8(2)
 997 013c 00C0      		rjmp .L43
 998               	.LVL94:
 999               	.L58:
 1000               	.LBE214:
 1001               	.LBB215:
 1002               	.LBB213:
 1003               	.LSM142:
 1004 013e 83E0      		ldi r24,lo8(3)
 1005               	.LVL95:
 1006               	.L43:
 1007               	/* epilogue start */
 1008               	.LBE213:
 1009               	.LBE215:
 1010               	.LSM143:
 1011 0140 0F90      		pop __tmp_reg__
 1012 0142 0F90      		pop __tmp_reg__
 1013 0144 0F90      		pop __tmp_reg__
 1014 0146 0F90      		pop __tmp_reg__
 1015 0148 0F90      		pop __tmp_reg__
 1016 014a CF91      		pop r28
 1017 014c DF91      		pop r29
 1018 014e 1F91      		pop r17
 1019 0150 0F91      		pop r16
 1020 0152 FF90      		pop r15
 1021 0154 EF90      		pop r14
 1022 0156 DF90      		pop r13
 1023 0158 CF90      		pop r12
 1024               	.LVL96:
 1025 015a BF90      		pop r11
 1026 015c AF90      		pop r10
 1027 015e 9F90      		pop r9
 1028 0160 8F90      		pop r8
 1029 0162 7F90      		pop r7
 1030 0164 6F90      		pop r6
 1031 0166 0895      		ret
 1032               	.LFE125:
 1034               		.section	.text.MS_Host_ResetMSInterface,"ax",@progbits
 1035               	.global	MS_Host_ResetMSInterface
 1037               	MS_Host_ResetMSInterface:
 1038               	.LFB132:
 1039               	.LSM144:
 1040               	.LVL97:
 1041 0000 CF93      		push r28
 1042 0002 DF93      		push r29
 1043               	/* prologue: function */
 1044               	/* frame size = 0 */
 1045               	/* stack size = 2 */
 1046               	.L__stack_usage = 2
 1047 0004 EC01      		movw r28,r24
 1048               	.LSM145:
 1049 0006 8D81      		ldd r24,Y+5
 1050               	.LVL98:
 1051 0008 91E2      		ldi r25,lo8(33)
 1052 000a 9093 0000 		sts USB_ControlRequest,r25
 1053 000e 9FEF      		ldi r25,lo8(-1)
 1054 0010 9093 0000 		sts USB_ControlRequest+1,r25
 1055 0014 1092 0000 		sts USB_ControlRequest+2+1,__zero_reg__
 1056 0018 1092 0000 		sts USB_ControlRequest+2,__zero_reg__
 1057 001c 8093 0000 		sts USB_ControlRequest+4,r24
 1058 0020 1092 0000 		sts USB_ControlRequest+5,__zero_reg__
 1059 0024 1092 0000 		sts USB_ControlRequest+6+1,__zero_reg__
 1060 0028 1092 0000 		sts USB_ControlRequest+6,__zero_reg__
 1061               	.LVL99:
 1062               	.LBB216:
 1063               	.LBB217:
 1064               	.LSM146:
 1065 002c 1092 A700 		sts 167,__zero_reg__
 1066               	.LBE217:
 1067               	.LBE216:
 1068               	.LSM147:
 1069 0030 80E0      		ldi r24,lo8(0)
 1070 0032 90E0      		ldi r25,hi8(0)
 1071 0034 0E94 0000 		call USB_Host_SendControlRequest
 1072               	.LVL100:
 1073 0038 8823      		tst r24
 1074 003a 01F4      		brne .L64
 1075               	.LSM148:
 1076 003c 8881      		ld r24,Y
 1077               	.LVL101:
 1078               	.LBB218:
 1079               	.LBB219:
 1080               	.LSM149:
 1081 003e 8093 A700 		sts 167,r24
 1082               	.LBE219:
 1083               	.LBE218:
 1084               	.LBB220:
 1085               	.LBB221:
 1086               	.LSM150:
 1087 0042 8091 AA00 		lds r24,170
 1088 0046 8F70      		andi r24,lo8(15)
 1089               	.LBB222:
 1090               	.LBB223:
 1091               	.LSM151:
 1092 0048 9091 AA00 		lds r25,170
 1093 004c 9073      		andi r25,lo8(48)
 1094               	.LBE223:
 1095               	.LBE222:
 1096               	.LSM152:
 1097 004e 9031      		cpi r25,lo8(16)
 1098 0050 01F4      		brne .L67
 1099 0052 90E8      		ldi r25,lo8(-128)
 1100 0054 00C0      		rjmp .L65
 1101               	.L67:
 1102 0056 90E0      		ldi r25,lo8(0)
 1103               	.L65:
 1104               	.LBE221:
 1105               	.LBE220:
 1106               	.LSM153:
 1107 0058 892B      		or r24,r25
 1108 005a 0E94 0000 		call USB_Host_ClearEndpointStall
 1109               	.LVL102:
 1110 005e 8823      		tst r24
 1111 0060 01F4      		brne .L64
 1112               	.LSM154:
 1113 0062 8A81      		ldd r24,Y+2
 1114               	.LVL103:
 1115               	.LBB224:
 1116               	.LBB225:
 1117               	.LSM155:
 1118 0064 8093 A700 		sts 167,r24
 1119               	.LBE225:
 1120               	.LBE224:
 1121               	.LBB226:
 1122               	.LBB227:
 1123               	.LSM156:
 1124 0068 8091 AA00 		lds r24,170
 1125 006c 8F70      		andi r24,lo8(15)
 1126               	.LBB228:
 1127               	.LBB229:
 1128               	.LSM157:
 1129 006e 9091 AA00 		lds r25,170
 1130 0072 9073      		andi r25,lo8(48)
 1131               	.LBE229:
 1132               	.LBE228:
 1133               	.LSM158:
 1134 0074 9031      		cpi r25,lo8(16)
 1135 0076 01F4      		brne .L68
 1136 0078 90E8      		ldi r25,lo8(-128)
 1137 007a 00C0      		rjmp .L66
 1138               	.L68:
 1139 007c 90E0      		ldi r25,lo8(0)
 1140               	.L66:
 1141               	.LBE227:
 1142               	.LBE226:
 1143               	.LSM159:
 1144 007e 892B      		or r24,r25
 1145 0080 0E94 0000 		call USB_Host_ClearEndpointStall
 1146               	.LVL104:
 1147               	.L64:
 1148               	/* epilogue start */
 1149               	.LSM160:
 1150 0084 DF91      		pop r29
 1151 0086 CF91      		pop r28
 1152               	.LVL105:
 1153 0088 0895      		ret
 1154               	.LFE132:
 1156               		.section	.text.MS_Host_GetMaxLUN,"ax",@progbits
 1157               	.global	MS_Host_GetMaxLUN
 1159               	MS_Host_GetMaxLUN:
 1160               	.LFB133:
 1161               	.LSM161:
 1162               	.LVL106:
 1163 0000 CF93      		push r28
 1164 0002 DF93      		push r29
 1165               	/* prologue: function */
 1166               	/* frame size = 0 */
 1167               	/* stack size = 2 */
 1168               	.L__stack_usage = 2
 1169 0004 EB01      		movw r28,r22
 1170               	.LVL107:
 1171               	.LSM162:
 1172 0006 FC01      		movw r30,r24
 1173 0008 8581      		ldd r24,Z+5
 1174               	.LVL108:
 1175 000a 91EA      		ldi r25,lo8(-95)
 1176 000c 9093 0000 		sts USB_ControlRequest,r25
 1177 0010 9EEF      		ldi r25,lo8(-2)
 1178 0012 9093 0000 		sts USB_ControlRequest+1,r25
 1179 0016 1092 0000 		sts USB_ControlRequest+2+1,__zero_reg__
 1180 001a 1092 0000 		sts USB_ControlRequest+2,__zero_reg__
 1181 001e 8093 0000 		sts USB_ControlRequest+4,r24
 1182 0022 1092 0000 		sts USB_ControlRequest+5,__zero_reg__
 1183 0026 81E0      		ldi r24,lo8(1)
 1184 0028 90E0      		ldi r25,hi8(1)
 1185 002a 9093 0000 		sts USB_ControlRequest+6+1,r25
 1186 002e 8093 0000 		sts USB_ControlRequest+6,r24
 1187               	.LVL109:
 1188               	.LBB230:
 1189               	.LBB231:
 1190               	.LSM163:
 1191 0032 1092 A700 		sts 167,__zero_reg__
 1192               	.LBE231:
 1193               	.LBE230:
 1194               	.LSM164:
 1195 0036 CB01      		movw r24,r22
 1196 0038 0E94 0000 		call USB_Host_SendControlRequest
 1197               	.LVL110:
 1198 003c 8330      		cpi r24,lo8(3)
 1199 003e 01F4      		brne .L70
 1200               	.LSM165:
 1201 0040 1882      		st Y,__zero_reg__
 1202               	.LVL111:
 1203               	.LSM166:
 1204 0042 80E0      		ldi r24,lo8(0)
 1205               	.LVL112:
 1206               	.L70:
 1207               	/* epilogue start */
 1208               	.LSM167:
 1209 0044 DF91      		pop r29
 1210 0046 CF91      		pop r28
 1211               	.LVL113:
 1212 0048 0895      		ret
 1213               	.LFE133:
 1215               		.section	.text.MS_Host_GetInquiryData,"ax",@progbits
 1216               	.global	MS_Host_GetInquiryData
 1218               	MS_Host_GetInquiryData:
 1219               	.LFB134:
 1220               	.LSM168:
 1221               	.LVL114:
 1222 0000 0F93      		push r16
 1223 0002 1F93      		push r17
 1224 0004 DF93      		push r29
 1225 0006 CF93      		push r28
 1226 0008 CDB7      		in r28,__SP_L__
 1227 000a DEB7      		in r29,__SP_H__
 1228 000c AC97      		sbiw r28,44
 1229 000e 0FB6      		in __tmp_reg__,__SREG__
 1230 0010 F894      		cli
 1231 0012 DEBF      		out __SP_H__,r29
 1232 0014 0FBE      		out __SREG__,__tmp_reg__
 1233 0016 CDBF      		out __SP_L__,r28
 1234               	/* prologue: function */
 1235               	/* frame size = 44 */
 1236               	/* stack size = 48 */
 1237               	.L__stack_usage = 48
 1238 0018 8C01      		movw r16,r24
 1239               	.LSM169:
 1240 001a 8091 0000 		lds r24,USB_HostState
 1241               	.LVL115:
 1242 001e 8B30      		cpi r24,lo8(11)
 1243 0020 01F4      		brne .L74
 1244               	.LSM170:
 1245 0022 D801      		movw r26,r16
 1246 0024 1496      		adiw r26,4
 1247 0026 8C91      		ld r24,X
 1248 0028 1497      		sbiw r26,4
 1249 002a 8823      		tst r24
 1250 002c 01F0      		breq .L74
 1251               	.LSM171:
 1252 002e FE01      		movw r30,r28
 1253 0030 3E96      		adiw r30,14
 1254 0032 8FE1      		ldi r24,lo8(31)
 1255 0034 DF01      		movw r26,r30
 1256 0036 1D92      		st X+,__zero_reg__
 1257 0038 8A95      	        dec r24
 1258 003a 01F4      		brne .-6
 1259 003c 84E2      		ldi r24,lo8(36)
 1260 003e 90E0      		ldi r25,hi8(36)
 1261 0040 A0E0      		ldi r26,hlo8(36)
 1262 0042 B0E0      		ldi r27,hhi8(36)
 1263 0044 8E8B      		std Y+22,r24
 1264 0046 9F8B      		std Y+23,r25
 1265 0048 A88F      		std Y+24,r26
 1266 004a B98F      		std Y+25,r27
 1267 004c 80E8      		ldi r24,lo8(-128)
 1268 004e 8A8F      		std Y+26,r24
 1269 0050 6B8F      		std Y+27,r22
 1270 0052 86E0      		ldi r24,lo8(6)
 1271 0054 8C8F      		std Y+28,r24
 1272 0056 82E1      		ldi r24,lo8(18)
 1273 0058 8D8F      		std Y+29,r24
 1274 005a 84E2      		ldi r24,lo8(36)
 1275 005c 89A3      		std Y+33,r24
 1276               	.LSM172:
 1277 005e C801      		movw r24,r16
 1278 0060 BF01      		movw r22,r30
 1279               	.LVL116:
 1280 0062 0E94 0000 		call MS_Host_SendCommand
 1281               	.LVL117:
 1282 0066 8823      		tst r24
 1283 0068 01F4      		brne .L72
 1284               	.LSM173:
 1285 006a C801      		movw r24,r16
 1286               	.LVL118:
 1287 006c BE01      		movw r22,r28
 1288 006e 6F5F      		subi r22,lo8(-(1))
 1289 0070 7F4F      		sbci r23,hi8(-(1))
 1290 0072 0E94 0000 		call MS_Host_GetReturnedStatus
 1291               	.LVL119:
 1292 0076 00C0      		rjmp .L72
 1293               	.LVL120:
 1294               	.L74:
 1295               	.LSM174:
 1296 0078 81E0      		ldi r24,lo8(1)
 1297               	.LVL121:
 1298               	.L72:
 1299               	/* epilogue start */
 1300               	.LSM175:
 1301 007a AC96      		adiw r28,44
 1302 007c 0FB6      		in __tmp_reg__,__SREG__
 1303 007e F894      		cli
 1304 0080 DEBF      		out __SP_H__,r29
 1305 0082 0FBE      		out __SREG__,__tmp_reg__
 1306 0084 CDBF      		out __SP_L__,r28
 1307 0086 CF91      		pop r28
 1308 0088 DF91      		pop r29
 1309 008a 1F91      		pop r17
 1310 008c 0F91      		pop r16
 1311               	.LVL122:
 1312 008e 0895      		ret
 1313               	.LFE134:
 1315               		.section	.text.MS_Host_TestUnitReady,"ax",@progbits
 1316               	.global	MS_Host_TestUnitReady
 1318               	MS_Host_TestUnitReady:
 1319               	.LFB135:
 1320               	.LSM176:
 1321               	.LVL123:
 1322 0000 0F93      		push r16
 1323 0002 1F93      		push r17
 1324 0004 DF93      		push r29
 1325 0006 CF93      		push r28
 1326 0008 CDB7      		in r28,__SP_L__
 1327 000a DEB7      		in r29,__SP_H__
 1328 000c AC97      		sbiw r28,44
 1329 000e 0FB6      		in __tmp_reg__,__SREG__
 1330 0010 F894      		cli
 1331 0012 DEBF      		out __SP_H__,r29
 1332 0014 0FBE      		out __SREG__,__tmp_reg__
 1333 0016 CDBF      		out __SP_L__,r28
 1334               	/* prologue: function */
 1335               	/* frame size = 44 */
 1336               	/* stack size = 48 */
 1337               	.L__stack_usage = 48
 1338 0018 8C01      		movw r16,r24
 1339               	.LSM177:
 1340 001a 8091 0000 		lds r24,USB_HostState
 1341               	.LVL124:
 1342 001e 8B30      		cpi r24,lo8(11)
 1343 0020 01F4      		brne .L78
 1344               	.LSM178:
 1345 0022 D801      		movw r26,r16
 1346 0024 1496      		adiw r26,4
 1347 0026 8C91      		ld r24,X
 1348 0028 1497      		sbiw r26,4
 1349 002a 8823      		tst r24
 1350 002c 01F0      		breq .L78
 1351               	.LSM179:
 1352 002e FE01      		movw r30,r28
 1353 0030 3E96      		adiw r30,14
 1354 0032 8FE1      		ldi r24,lo8(31)
 1355 0034 DF01      		movw r26,r30
 1356 0036 1D92      		st X+,__zero_reg__
 1357 0038 8A95      	        dec r24
 1358 003a 01F4      		brne .-6
 1359 003c 80E8      		ldi r24,lo8(-128)
 1360 003e 8A8F      		std Y+26,r24
 1361 0040 6B8F      		std Y+27,r22
 1362 0042 86E0      		ldi r24,lo8(6)
 1363 0044 8C8F      		std Y+28,r24
 1364               	.LSM180:
 1365 0046 C801      		movw r24,r16
 1366 0048 BF01      		movw r22,r30
 1367               	.LVL125:
 1368 004a 40E0      		ldi r20,lo8(0)
 1369 004c 50E0      		ldi r21,hi8(0)
 1370 004e 0E94 0000 		call MS_Host_SendCommand
 1371               	.LVL126:
 1372 0052 8823      		tst r24
 1373 0054 01F4      		brne .L76
 1374               	.LSM181:
 1375 0056 C801      		movw r24,r16
 1376               	.LVL127:
 1377 0058 BE01      		movw r22,r28
 1378 005a 6F5F      		subi r22,lo8(-(1))
 1379 005c 7F4F      		sbci r23,hi8(-(1))
 1380 005e 0E94 0000 		call MS_Host_GetReturnedStatus
 1381               	.LVL128:
 1382 0062 00C0      		rjmp .L76
 1383               	.LVL129:
 1384               	.L78:
 1385               	.LSM182:
 1386 0064 81E0      		ldi r24,lo8(1)
 1387               	.LVL130:
 1388               	.L76:
 1389               	/* epilogue start */
 1390               	.LSM183:
 1391 0066 AC96      		adiw r28,44
 1392 0068 0FB6      		in __tmp_reg__,__SREG__
 1393 006a F894      		cli
 1394 006c DEBF      		out __SP_H__,r29
 1395 006e 0FBE      		out __SREG__,__tmp_reg__
 1396 0070 CDBF      		out __SP_L__,r28
 1397 0072 CF91      		pop r28
 1398 0074 DF91      		pop r29
 1399 0076 1F91      		pop r17
 1400 0078 0F91      		pop r16
 1401               	.LVL131:
 1402 007a 0895      		ret
 1403               	.LFE135:
 1405               		.section	.text.MS_Host_ReadDeviceCapacity,"ax",@progbits
 1406               	.global	MS_Host_ReadDeviceCapacity
 1408               	MS_Host_ReadDeviceCapacity:
 1409               	.LFB136:
 1410               	.LSM184:
 1411               	.LVL132:
 1412 0000 AF92      		push r10
 1413 0002 BF92      		push r11
 1414 0004 CF92      		push r12
 1415 0006 DF92      		push r13
 1416 0008 EF92      		push r14
 1417 000a FF92      		push r15
 1418 000c 0F93      		push r16
 1419 000e 1F93      		push r17
 1420 0010 DF93      		push r29
 1421 0012 CF93      		push r28
 1422 0014 CDB7      		in r28,__SP_L__
 1423 0016 DEB7      		in r29,__SP_H__
 1424 0018 AC97      		sbiw r28,44
 1425 001a 0FB6      		in __tmp_reg__,__SREG__
 1426 001c F894      		cli
 1427 001e DEBF      		out __SP_H__,r29
 1428 0020 0FBE      		out __SREG__,__tmp_reg__
 1429 0022 CDBF      		out __SP_L__,r28
 1430               	/* prologue: function */
 1431               	/* frame size = 44 */
 1432               	/* stack size = 54 */
 1433               	.L__stack_usage = 54
 1434 0024 5C01      		movw r10,r24
 1435 0026 6A01      		movw r12,r20
 1436               	.LSM185:
 1437 0028 8091 0000 		lds r24,USB_HostState
 1438               	.LVL133:
 1439 002c 8B30      		cpi r24,lo8(11)
 1440 002e 01F0      		breq .+2
 1441 0030 00C0      		rjmp .L82
 1442               	.LVL134:
 1443               	.LSM186:
 1444 0032 D501      		movw r26,r10
 1445 0034 1496      		adiw r26,4
 1446 0036 8C91      		ld r24,X
 1447 0038 1497      		sbiw r26,4
 1448 003a 8823      		tst r24
 1449 003c 01F4      		brne .+2
 1450 003e 00C0      		rjmp .L82
 1451               	.LSM187:
 1452 0040 FE01      		movw r30,r28
 1453 0042 3E96      		adiw r30,14
 1454 0044 8FE1      		ldi r24,lo8(31)
 1455 0046 DF01      		movw r26,r30
 1456 0048 1D92      		st X+,__zero_reg__
 1457 004a 8A95      	        dec r24
 1458 004c 01F4      		brne .-6
 1459 004e 88E0      		ldi r24,lo8(8)
 1460 0050 90E0      		ldi r25,hi8(8)
 1461 0052 A0E0      		ldi r26,hlo8(8)
 1462 0054 B0E0      		ldi r27,hhi8(8)
 1463 0056 8E8B      		std Y+22,r24
 1464 0058 9F8B      		std Y+23,r25
 1465 005a A88F      		std Y+24,r26
 1466 005c B98F      		std Y+25,r27
 1467 005e 80E8      		ldi r24,lo8(-128)
 1468 0060 8A8F      		std Y+26,r24
 1469 0062 6B8F      		std Y+27,r22
 1470 0064 8AE0      		ldi r24,lo8(10)
 1471 0066 8C8F      		std Y+28,r24
 1472 0068 85E2      		ldi r24,lo8(37)
 1473 006a 8D8F      		std Y+29,r24
 1474               	.LSM188:
 1475 006c C501      		movw r24,r10
 1476 006e BF01      		movw r22,r30
 1477               	.LVL135:
 1478 0070 0E94 0000 		call MS_Host_SendCommand
 1479               	.LVL136:
 1480 0074 8823      		tst r24
 1481 0076 01F0      		breq .+2
 1482 0078 00C0      		rjmp .L80
 1483               	.LSM189:
 1484 007a F601      		movw r30,r12
 1485 007c 2081      		ld r18,Z
 1486 007e 3181      		ldd r19,Z+1
 1487 0080 4281      		ldd r20,Z+2
 1488 0082 5381      		ldd r21,Z+3
 1489 0084 B22F      		mov r27,r18
 1490 0086 AA27      		clr r26
 1491 0088 9927      		clr r25
 1492 008a 8827      		clr r24
 1493               	.LVL137:
 1494 008c E52E      		mov r14,r21
 1495 008e FF24      		clr r15
 1496 0090 0027      		clr r16
 1497 0092 1127      		clr r17
 1498 0094 8E29      		or r24,r14
 1499 0096 9F29      		or r25,r15
 1500 0098 A02B      		or r26,r16
 1501 009a B12B      		or r27,r17
 1502 009c E12C      		mov r14,__zero_reg__
 1503 009e F12C      		mov r15,__zero_reg__
 1504 00a0 7FEF      		ldi r23,hlo8(16711680)
 1505 00a2 072F      		mov r16,r23
 1506 00a4 112D      		mov r17,__zero_reg__
 1507 00a6 E222      		and r14,r18
 1508 00a8 F322      		and r15,r19
 1509 00aa 0423      		and r16,r20
 1510 00ac 1523      		and r17,r21
 1511 00ae EF2C      		mov r14,r15
 1512 00b0 F02E      		mov r15,r16
 1513 00b2 012F      		mov r16,r17
 1514 00b4 1127      		clr r17
 1515 00b6 8E29      		or r24,r14
 1516 00b8 9F29      		or r25,r15
 1517 00ba A02B      		or r26,r16
 1518 00bc B12B      		or r27,r17
 1519 00be 2070      		andi r18,lo8(65280)
 1520 00c0 4070      		andi r20,hlo8(65280)
 1521 00c2 5070      		andi r21,hhi8(65280)
 1522 00c4 542F      		mov r21,r20
 1523 00c6 432F      		mov r20,r19
 1524 00c8 322F      		mov r19,r18
 1525 00ca 2227      		clr r18
 1526 00cc 822B      		or r24,r18
 1527 00ce 932B      		or r25,r19
 1528 00d0 A42B      		or r26,r20
 1529 00d2 B52B      		or r27,r21
 1530 00d4 8083      		st Z,r24
 1531 00d6 9183      		std Z+1,r25
 1532 00d8 A283      		std Z+2,r26
 1533 00da B383      		std Z+3,r27
 1534               	.LSM190:
 1535 00dc 2481      		ldd r18,Z+4
 1536 00de 3581      		ldd r19,Z+5
 1537 00e0 4681      		ldd r20,Z+6
 1538 00e2 5781      		ldd r21,Z+7
 1539 00e4 B22F      		mov r27,r18
 1540 00e6 AA27      		clr r26
 1541 00e8 9927      		clr r25
 1542 00ea 8827      		clr r24
 1543 00ec E52E      		mov r14,r21
 1544 00ee FF24      		clr r15
 1545 00f0 0027      		clr r16
 1546 00f2 1127      		clr r17
 1547 00f4 8E29      		or r24,r14
 1548 00f6 9F29      		or r25,r15
 1549 00f8 A02B      		or r26,r16
 1550 00fa B12B      		or r27,r17
 1551 00fc E12C      		mov r14,__zero_reg__
 1552 00fe F12C      		mov r15,__zero_reg__
 1553 0100 6FEF      		ldi r22,hlo8(16711680)
 1554 0102 062F      		mov r16,r22
 1555 0104 112D      		mov r17,__zero_reg__
 1556 0106 E222      		and r14,r18
 1557 0108 F322      		and r15,r19
 1558 010a 0423      		and r16,r20
 1559 010c 1523      		and r17,r21
 1560 010e EF2C      		mov r14,r15
 1561 0110 F02E      		mov r15,r16
 1562 0112 012F      		mov r16,r17
 1563 0114 1127      		clr r17
 1564 0116 8E29      		or r24,r14
 1565 0118 9F29      		or r25,r15
 1566 011a A02B      		or r26,r16
 1567 011c B12B      		or r27,r17
 1568 011e 2070      		andi r18,lo8(65280)
 1569 0120 4070      		andi r20,hlo8(65280)
 1570 0122 5070      		andi r21,hhi8(65280)
 1571 0124 542F      		mov r21,r20
 1572 0126 432F      		mov r20,r19
 1573 0128 322F      		mov r19,r18
 1574 012a 2227      		clr r18
 1575 012c 822B      		or r24,r18
 1576 012e 932B      		or r25,r19
 1577 0130 A42B      		or r26,r20
 1578 0132 B52B      		or r27,r21
 1579 0134 8483      		std Z+4,r24
 1580 0136 9583      		std Z+5,r25
 1581 0138 A683      		std Z+6,r26
 1582 013a B783      		std Z+7,r27
 1583               	.LSM191:
 1584 013c C501      		movw r24,r10
 1585 013e BE01      		movw r22,r28
 1586 0140 6F5F      		subi r22,lo8(-(1))
 1587 0142 7F4F      		sbci r23,hi8(-(1))
 1588 0144 0E94 0000 		call MS_Host_GetReturnedStatus
 1589               	.LVL138:
 1590 0148 00C0      		rjmp .L80
 1591               	.LVL139:
 1592               	.L82:
 1593               	.LSM192:
 1594 014a 81E0      		ldi r24,lo8(1)
 1595               	.LVL140:
 1596               	.L80:
 1597               	/* epilogue start */
 1598               	.LSM193:
 1599 014c AC96      		adiw r28,44
 1600 014e 0FB6      		in __tmp_reg__,__SREG__
 1601 0150 F894      		cli
 1602 0152 DEBF      		out __SP_H__,r29
 1603 0154 0FBE      		out __SREG__,__tmp_reg__
 1604 0156 CDBF      		out __SP_L__,r28
 1605 0158 CF91      		pop r28
 1606 015a DF91      		pop r29
 1607 015c 1F91      		pop r17
 1608 015e 0F91      		pop r16
 1609 0160 FF90      		pop r15
 1610 0162 EF90      		pop r14
 1611 0164 DF90      		pop r13
 1612 0166 CF90      		pop r12
 1613               	.LVL141:
 1614 0168 BF90      		pop r11
 1615 016a AF90      		pop r10
 1616               	.LVL142:
 1617 016c 0895      		ret
 1618               	.LFE136:
 1620               		.section	.text.MS_Host_RequestSense,"ax",@progbits
 1621               	.global	MS_Host_RequestSense
 1623               	MS_Host_RequestSense:
 1624               	.LFB137:
 1625               	.LSM194:
 1626               	.LVL143:
 1627 0000 0F93      		push r16
 1628 0002 1F93      		push r17
 1629 0004 DF93      		push r29
 1630 0006 CF93      		push r28
 1631 0008 CDB7      		in r28,__SP_L__
 1632 000a DEB7      		in r29,__SP_H__
 1633 000c AC97      		sbiw r28,44
 1634 000e 0FB6      		in __tmp_reg__,__SREG__
 1635 0010 F894      		cli
 1636 0012 DEBF      		out __SP_H__,r29
 1637 0014 0FBE      		out __SREG__,__tmp_reg__
 1638 0016 CDBF      		out __SP_L__,r28
 1639               	/* prologue: function */
 1640               	/* frame size = 44 */
 1641               	/* stack size = 48 */
 1642               	.L__stack_usage = 48
 1643 0018 8C01      		movw r16,r24
 1644               	.LSM195:
 1645 001a 8091 0000 		lds r24,USB_HostState
 1646               	.LVL144:
 1647 001e 8B30      		cpi r24,lo8(11)
 1648 0020 01F4      		brne .L86
 1649               	.LSM196:
 1650 0022 D801      		movw r26,r16
 1651 0024 1496      		adiw r26,4
 1652 0026 8C91      		ld r24,X
 1653 0028 1497      		sbiw r26,4
 1654 002a 8823      		tst r24
 1655 002c 01F0      		breq .L86
 1656               	.LSM197:
 1657 002e FE01      		movw r30,r28
 1658 0030 3E96      		adiw r30,14
 1659 0032 8FE1      		ldi r24,lo8(31)
 1660 0034 DF01      		movw r26,r30
 1661 0036 1D92      		st X+,__zero_reg__
 1662 0038 8A95      	        dec r24
 1663 003a 01F4      		brne .-6
 1664 003c 82E1      		ldi r24,lo8(18)
 1665 003e 90E0      		ldi r25,hi8(18)
 1666 0040 A0E0      		ldi r26,hlo8(18)
 1667 0042 B0E0      		ldi r27,hhi8(18)
 1668 0044 8E8B      		std Y+22,r24
 1669 0046 9F8B      		std Y+23,r25
 1670 0048 A88F      		std Y+24,r26
 1671 004a B98F      		std Y+25,r27
 1672 004c 80E8      		ldi r24,lo8(-128)
 1673 004e 8A8F      		std Y+26,r24
 1674 0050 6B8F      		std Y+27,r22
 1675 0052 86E0      		ldi r24,lo8(6)
 1676 0054 8C8F      		std Y+28,r24
 1677 0056 83E0      		ldi r24,lo8(3)
 1678 0058 8D8F      		std Y+29,r24
 1679 005a 82E1      		ldi r24,lo8(18)
 1680 005c 89A3      		std Y+33,r24
 1681               	.LSM198:
 1682 005e C801      		movw r24,r16
 1683 0060 BF01      		movw r22,r30
 1684               	.LVL145:
 1685 0062 0E94 0000 		call MS_Host_SendCommand
 1686               	.LVL146:
 1687 0066 8823      		tst r24
 1688 0068 01F4      		brne .L84
 1689               	.LSM199:
 1690 006a C801      		movw r24,r16
 1691               	.LVL147:
 1692 006c BE01      		movw r22,r28
 1693 006e 6F5F      		subi r22,lo8(-(1))
 1694 0070 7F4F      		sbci r23,hi8(-(1))
 1695 0072 0E94 0000 		call MS_Host_GetReturnedStatus
 1696               	.LVL148:
 1697 0076 00C0      		rjmp .L84
 1698               	.LVL149:
 1699               	.L86:
 1700               	.LSM200:
 1701 0078 81E0      		ldi r24,lo8(1)
 1702               	.LVL150:
 1703               	.L84:
 1704               	/* epilogue start */
 1705               	.LSM201:
 1706 007a AC96      		adiw r28,44
 1707 007c 0FB6      		in __tmp_reg__,__SREG__
 1708 007e F894      		cli
 1709 0080 DEBF      		out __SP_H__,r29
 1710 0082 0FBE      		out __SREG__,__tmp_reg__
 1711 0084 CDBF      		out __SP_L__,r28
 1712 0086 CF91      		pop r28
 1713 0088 DF91      		pop r29
 1714 008a 1F91      		pop r17
 1715 008c 0F91      		pop r16
 1716               	.LVL151:
 1717 008e 0895      		ret
 1718               	.LFE137:
 1720               		.section	.text.MS_Host_PreventAllowMediumRemoval,"ax",@progbits
 1721               	.global	MS_Host_PreventAllowMediumRemoval
 1723               	MS_Host_PreventAllowMediumRemoval:
 1724               	.LFB138:
 1725               	.LSM202:
 1726               	.LVL152:
 1727 0000 0F93      		push r16
 1728 0002 1F93      		push r17
 1729 0004 DF93      		push r29
 1730 0006 CF93      		push r28
 1731 0008 CDB7      		in r28,__SP_L__
 1732 000a DEB7      		in r29,__SP_H__
 1733 000c AC97      		sbiw r28,44
 1734 000e 0FB6      		in __tmp_reg__,__SREG__
 1735 0010 F894      		cli
 1736 0012 DEBF      		out __SP_H__,r29
 1737 0014 0FBE      		out __SREG__,__tmp_reg__
 1738 0016 CDBF      		out __SP_L__,r28
 1739               	/* prologue: function */
 1740               	/* frame size = 44 */
 1741               	/* stack size = 48 */
 1742               	.L__stack_usage = 48
 1743 0018 8C01      		movw r16,r24
 1744               	.LSM203:
 1745 001a 8091 0000 		lds r24,USB_HostState
 1746               	.LVL153:
 1747 001e 8B30      		cpi r24,lo8(11)
 1748 0020 01F4      		brne .L90
 1749               	.LSM204:
 1750 0022 D801      		movw r26,r16
 1751 0024 1496      		adiw r26,4
 1752 0026 8C91      		ld r24,X
 1753 0028 1497      		sbiw r26,4
 1754 002a 8823      		tst r24
 1755 002c 01F0      		breq .L90
 1756               	.LSM205:
 1757 002e FE01      		movw r30,r28
 1758 0030 3E96      		adiw r30,14
 1759 0032 8FE1      		ldi r24,lo8(31)
 1760 0034 DF01      		movw r26,r30
 1761 0036 1D92      		st X+,__zero_reg__
 1762 0038 8A95      	        dec r24
 1763 003a 01F4      		brne .-6
 1764 003c 6B8F      		std Y+27,r22
 1765 003e 86E0      		ldi r24,lo8(6)
 1766 0040 8C8F      		std Y+28,r24
 1767 0042 8EE1      		ldi r24,lo8(30)
 1768 0044 8D8F      		std Y+29,r24
 1769 0046 48A3      		std Y+32,r20
 1770               	.LSM206:
 1771 0048 C801      		movw r24,r16
 1772 004a BF01      		movw r22,r30
 1773               	.LVL154:
 1774 004c 40E0      		ldi r20,lo8(0)
 1775 004e 50E0      		ldi r21,hi8(0)
 1776               	.LVL155:
 1777 0050 0E94 0000 		call MS_Host_SendCommand
 1778               	.LVL156:
 1779 0054 8823      		tst r24
 1780 0056 01F4      		brne .L88
 1781               	.LSM207:
 1782 0058 C801      		movw r24,r16
 1783               	.LVL157:
 1784 005a BE01      		movw r22,r28
 1785 005c 6F5F      		subi r22,lo8(-(1))
 1786 005e 7F4F      		sbci r23,hi8(-(1))
 1787 0060 0E94 0000 		call MS_Host_GetReturnedStatus
 1788               	.LVL158:
 1789 0064 00C0      		rjmp .L88
 1790               	.LVL159:
 1791               	.L90:
 1792               	.LSM208:
 1793 0066 81E0      		ldi r24,lo8(1)
 1794               	.LVL160:
 1795               	.L88:
 1796               	/* epilogue start */
 1797               	.LSM209:
 1798 0068 AC96      		adiw r28,44
 1799 006a 0FB6      		in __tmp_reg__,__SREG__
 1800 006c F894      		cli
 1801 006e DEBF      		out __SP_H__,r29
 1802 0070 0FBE      		out __SREG__,__tmp_reg__
 1803 0072 CDBF      		out __SP_L__,r28
 1804 0074 CF91      		pop r28
 1805 0076 DF91      		pop r29
 1806 0078 1F91      		pop r17
 1807 007a 0F91      		pop r16
 1808               	.LVL161:
 1809 007c 0895      		ret
 1810               	.LFE138:
 1812               		.section	.text.MS_Host_ReadDeviceBlocks,"ax",@progbits
 1813               	.global	MS_Host_ReadDeviceBlocks
 1815               	MS_Host_ReadDeviceBlocks:
 1816               	.LFB139:
 1817               	.LSM210:
 1818               	.LVL162:
 1819 0000 4F92      		push r4
 1820 0002 5F92      		push r5
 1821 0004 6F92      		push r6
 1822 0006 7F92      		push r7
 1823 0008 8F92      		push r8
 1824 000a 9F92      		push r9
 1825 000c AF92      		push r10
 1826 000e BF92      		push r11
 1827 0010 CF92      		push r12
 1828 0012 DF92      		push r13
 1829 0014 EF92      		push r14
 1830 0016 FF92      		push r15
 1831 0018 0F93      		push r16
 1832 001a 1F93      		push r17
 1833 001c DF93      		push r29
 1834 001e CF93      		push r28
 1835 0020 CDB7      		in r28,__SP_L__
 1836 0022 DEB7      		in r29,__SP_H__
 1837 0024 AC97      		sbiw r28,44
 1838 0026 0FB6      		in __tmp_reg__,__SREG__
 1839 0028 F894      		cli
 1840 002a DEBF      		out __SP_H__,r29
 1841 002c 0FBE      		out __SREG__,__tmp_reg__
 1842 002e CDBF      		out __SP_L__,r28
 1843               	/* prologue: function */
 1844               	/* frame size = 44 */
 1845               	/* stack size = 60 */
 1846               	.L__stack_usage = 60
 1847 0030 5C01      		movw r10,r24
 1848 0032 162F      		mov r17,r22
 1849 0034 3901      		movw r6,r18
 1850 0036 4A01      		movw r8,r20
 1851 0038 2601      		movw r4,r12
 1852               	.LSM211:
 1853 003a 8091 0000 		lds r24,USB_HostState
 1854               	.LVL163:
 1855 003e 8B30      		cpi r24,lo8(11)
 1856 0040 01F4      		brne .L94
 1857               	.LVL164:
 1858               	.LSM212:
 1859 0042 F501      		movw r30,r10
 1860 0044 8481      		ldd r24,Z+4
 1861 0046 8823      		tst r24
 1862 0048 01F0      		breq .L94
 1863               	.LSM213:
 1864 004a 8EE0      		ldi r24,lo8(14)
 1865 004c C82E      		mov r12,r24
 1866 004e D12C      		mov r13,__zero_reg__
 1867 0050 CC0E      		add r12,r28
 1868 0052 DD1E      		adc r13,r29
 1869 0054 8FE1      		ldi r24,lo8(31)
 1870 0056 F601      		movw r30,r12
 1871 0058 1192      		st Z+,__zero_reg__
 1872 005a 8A95      	        dec r24
 1873 005c 01F4      		brne .-6
 1874               	.LSM214:
 1875 005e B701      		movw r22,r14
 1876 0060 80E0      		ldi r24,lo8(0)
 1877 0062 90E0      		ldi r25,hi8(0)
 1878 0064 202F      		mov r18,r16
 1879               	.LVL165:
 1880 0066 30E0      		ldi r19,lo8(0)
 1881 0068 40E0      		ldi r20,lo8(0)
 1882 006a 50E0      		ldi r21,hi8(0)
 1883 006c 0E94 0000 		call __mulsi3
 1884               	.LSM215:
 1885 0070 6E8B      		std Y+22,r22
 1886 0072 7F8B      		std Y+23,r23
 1887 0074 888F      		std Y+24,r24
 1888 0076 998F      		std Y+25,r25
 1889 0078 80E8      		ldi r24,lo8(-128)
 1890 007a 8A8F      		std Y+26,r24
 1891 007c 1B8F      		std Y+27,r17
 1892 007e 8AE0      		ldi r24,lo8(10)
 1893 0080 8C8F      		std Y+28,r24
 1894 0082 88E2      		ldi r24,lo8(40)
 1895 0084 8D8F      		std Y+29,r24
 1896 0086 9F8E      		std Y+31,r9
 1897 0088 88A2      		std Y+32,r8
 1898 008a 79A2      		std Y+33,r7
 1899 008c 6AA2      		std Y+34,r6
 1900 008e 0DA3      		std Y+37,r16
 1901               	.LSM216:
 1902 0090 C501      		movw r24,r10
 1903 0092 B601      		movw r22,r12
 1904 0094 A201      		movw r20,r4
 1905 0096 0E94 0000 		call MS_Host_SendCommand
 1906               	.LVL166:
 1907 009a 8823      		tst r24
 1908 009c 01F4      		brne .L92
 1909               	.LSM217:
 1910 009e C501      		movw r24,r10
 1911               	.LVL167:
 1912 00a0 BE01      		movw r22,r28
 1913 00a2 6F5F      		subi r22,lo8(-(1))
 1914 00a4 7F4F      		sbci r23,hi8(-(1))
 1915 00a6 0E94 0000 		call MS_Host_GetReturnedStatus
 1916               	.LVL168:
 1917 00aa 00C0      		rjmp .L92
 1918               	.LVL169:
 1919               	.L94:
 1920               	.LSM218:
 1921 00ac 81E0      		ldi r24,lo8(1)
 1922               	.LVL170:
 1923               	.L92:
 1924               	/* epilogue start */
 1925               	.LSM219:
 1926 00ae AC96      		adiw r28,44
 1927 00b0 0FB6      		in __tmp_reg__,__SREG__
 1928 00b2 F894      		cli
 1929 00b4 DEBF      		out __SP_H__,r29
 1930 00b6 0FBE      		out __SREG__,__tmp_reg__
 1931 00b8 CDBF      		out __SP_L__,r28
 1932 00ba CF91      		pop r28
 1933 00bc DF91      		pop r29
 1934 00be 1F91      		pop r17
 1935               	.LVL171:
 1936 00c0 0F91      		pop r16
 1937               	.LVL172:
 1938 00c2 FF90      		pop r15
 1939 00c4 EF90      		pop r14
 1940               	.LVL173:
 1941 00c6 DF90      		pop r13
 1942 00c8 CF90      		pop r12
 1943 00ca BF90      		pop r11
 1944 00cc AF90      		pop r10
 1945               	.LVL174:
 1946 00ce 9F90      		pop r9
 1947 00d0 8F90      		pop r8
 1948 00d2 7F90      		pop r7
 1949 00d4 6F90      		pop r6
 1950 00d6 5F90      		pop r5
 1951 00d8 4F90      		pop r4
 1952               	.LVL175:
 1953 00da 0895      		ret
 1954               	.LFE139:
 1956               		.section	.text.MS_Host_WriteDeviceBlocks,"ax",@progbits
 1957               	.global	MS_Host_WriteDeviceBlocks
 1959               	MS_Host_WriteDeviceBlocks:
 1960               	.LFB140:
 1961               	.LSM220:
 1962               	.LVL176:
 1963 0000 4F92      		push r4
 1964 0002 5F92      		push r5
 1965 0004 6F92      		push r6
 1966 0006 7F92      		push r7
 1967 0008 8F92      		push r8
 1968 000a 9F92      		push r9
 1969 000c AF92      		push r10
 1970 000e BF92      		push r11
 1971 0010 CF92      		push r12
 1972 0012 DF92      		push r13
 1973 0014 EF92      		push r14
 1974 0016 FF92      		push r15
 1975 0018 0F93      		push r16
 1976 001a 1F93      		push r17
 1977 001c DF93      		push r29
 1978 001e CF93      		push r28
 1979 0020 CDB7      		in r28,__SP_L__
 1980 0022 DEB7      		in r29,__SP_H__
 1981 0024 AC97      		sbiw r28,44
 1982 0026 0FB6      		in __tmp_reg__,__SREG__
 1983 0028 F894      		cli
 1984 002a DEBF      		out __SP_H__,r29
 1985 002c 0FBE      		out __SREG__,__tmp_reg__
 1986 002e CDBF      		out __SP_L__,r28
 1987               	/* prologue: function */
 1988               	/* frame size = 44 */
 1989               	/* stack size = 60 */
 1990               	.L__stack_usage = 60
 1991 0030 5C01      		movw r10,r24
 1992 0032 162F      		mov r17,r22
 1993 0034 3901      		movw r6,r18
 1994 0036 4A01      		movw r8,r20
 1995 0038 2601      		movw r4,r12
 1996               	.LSM221:
 1997 003a 8091 0000 		lds r24,USB_HostState
 1998               	.LVL177:
 1999 003e 8B30      		cpi r24,lo8(11)
 2000 0040 01F4      		brne .L98
 2001               	.LVL178:
 2002               	.LSM222:
 2003 0042 F501      		movw r30,r10
 2004 0044 8481      		ldd r24,Z+4
 2005 0046 8823      		tst r24
 2006 0048 01F0      		breq .L98
 2007               	.LSM223:
 2008 004a 9EE0      		ldi r25,lo8(14)
 2009 004c C92E      		mov r12,r25
 2010 004e D12C      		mov r13,__zero_reg__
 2011 0050 CC0E      		add r12,r28
 2012 0052 DD1E      		adc r13,r29
 2013 0054 8FE1      		ldi r24,lo8(31)
 2014 0056 F601      		movw r30,r12
 2015 0058 1192      		st Z+,__zero_reg__
 2016 005a 8A95      	        dec r24
 2017 005c 01F4      		brne .-6
 2018               	.LSM224:
 2019 005e B701      		movw r22,r14
 2020 0060 80E0      		ldi r24,lo8(0)
 2021 0062 90E0      		ldi r25,hi8(0)
 2022 0064 202F      		mov r18,r16
 2023               	.LVL179:
 2024 0066 30E0      		ldi r19,lo8(0)
 2025 0068 40E0      		ldi r20,lo8(0)
 2026 006a 50E0      		ldi r21,hi8(0)
 2027 006c 0E94 0000 		call __mulsi3
 2028               	.LSM225:
 2029 0070 6E8B      		std Y+22,r22
 2030 0072 7F8B      		std Y+23,r23
 2031 0074 888F      		std Y+24,r24
 2032 0076 998F      		std Y+25,r25
 2033 0078 1B8F      		std Y+27,r17
 2034 007a 8AE0      		ldi r24,lo8(10)
 2035 007c 8C8F      		std Y+28,r24
 2036 007e 8AE2      		ldi r24,lo8(42)
 2037 0080 8D8F      		std Y+29,r24
 2038 0082 9F8E      		std Y+31,r9
 2039 0084 88A2      		std Y+32,r8
 2040 0086 79A2      		std Y+33,r7
 2041 0088 6AA2      		std Y+34,r6
 2042 008a 0DA3      		std Y+37,r16
 2043               	.LSM226:
 2044 008c C501      		movw r24,r10
 2045 008e B601      		movw r22,r12
 2046 0090 A201      		movw r20,r4
 2047 0092 0E94 0000 		call MS_Host_SendCommand
 2048               	.LVL180:
 2049 0096 8823      		tst r24
 2050 0098 01F4      		brne .L96
 2051               	.LSM227:
 2052 009a C501      		movw r24,r10
 2053               	.LVL181:
 2054 009c BE01      		movw r22,r28
 2055 009e 6F5F      		subi r22,lo8(-(1))
 2056 00a0 7F4F      		sbci r23,hi8(-(1))
 2057 00a2 0E94 0000 		call MS_Host_GetReturnedStatus
 2058               	.LVL182:
 2059 00a6 00C0      		rjmp .L96
 2060               	.LVL183:
 2061               	.L98:
 2062               	.LSM228:
 2063 00a8 81E0      		ldi r24,lo8(1)
 2064               	.LVL184:
 2065               	.L96:
 2066               	/* epilogue start */
 2067               	.LSM229:
 2068 00aa AC96      		adiw r28,44
 2069 00ac 0FB6      		in __tmp_reg__,__SREG__
 2070 00ae F894      		cli
 2071 00b0 DEBF      		out __SP_H__,r29
 2072 00b2 0FBE      		out __SREG__,__tmp_reg__
 2073 00b4 CDBF      		out __SP_L__,r28
 2074 00b6 CF91      		pop r28
 2075 00b8 DF91      		pop r29
 2076 00ba 1F91      		pop r17
 2077               	.LVL185:
 2078 00bc 0F91      		pop r16
 2079               	.LVL186:
 2080 00be FF90      		pop r15
 2081 00c0 EF90      		pop r14
 2082               	.LVL187:
 2083 00c2 DF90      		pop r13
 2084 00c4 CF90      		pop r12
 2085 00c6 BF90      		pop r11
 2086 00c8 AF90      		pop r10
 2087               	.LVL188:
 2088 00ca 9F90      		pop r9
 2089 00cc 8F90      		pop r8
 2090 00ce 7F90      		pop r7
 2091 00d0 6F90      		pop r6
 2092 00d2 5F90      		pop r5
 2093 00d4 4F90      		pop r4
 2094               	.LVL189:
 2095 00d6 0895      		ret
 2096               	.LFE140:
 2234               	.Letext0:
DEFINED SYMBOLS
                            *ABS*:00000000 MassStorage.c
C:\Users\david\AppData\Local\Temp\cctA7wHL.s:2      *ABS*:0000003f __SREG__
C:\Users\david\AppData\Local\Temp\cctA7wHL.s:3      *ABS*:0000003e __SP_H__
C:\Users\david\AppData\Local\Temp\cctA7wHL.s:4      *ABS*:0000003d __SP_L__
C:\Users\david\AppData\Local\Temp\cctA7wHL.s:5      *ABS*:00000034 __CCP__
C:\Users\david\AppData\Local\Temp\cctA7wHL.s:6      *ABS*:00000000 __tmp_reg__
C:\Users\david\AppData\Local\Temp\cctA7wHL.s:7      *ABS*:00000001 __zero_reg__
C:\Users\david\AppData\Local\Temp\cctA7wHL.s:18     .text.DCOMP_MS_Host_NextMSInterface:00000000 DCOMP_MS_Host_NextMSInterface
C:\Users\david\AppData\Local\Temp\cctA7wHL.s:63     .text.MS_Host_WaitForDataReceived:00000000 MS_Host_WaitForDataReceived
C:\Users\david\AppData\Local\Temp\cctA7wHL.s:301    .text.MS_Host_SendCommand:00000000 MS_Host_SendCommand
C:\Users\david\AppData\Local\Temp\cctA7wHL.s:610    .text.MS_Host_GetReturnedStatus:00000000 MS_Host_GetReturnedStatus
C:\Users\david\AppData\Local\Temp\cctA7wHL.s:694    .text.DCOMP_MS_Host_NextMSInterfaceEndpoint:00000000 DCOMP_MS_Host_NextMSInterfaceEndpoint
C:\Users\david\AppData\Local\Temp\cctA7wHL.s:752    .text.MS_Host_ConfigurePipes:00000000 MS_Host_ConfigurePipes
C:\Users\david\AppData\Local\Temp\cctA7wHL.s:1037   .text.MS_Host_ResetMSInterface:00000000 MS_Host_ResetMSInterface
C:\Users\david\AppData\Local\Temp\cctA7wHL.s:1159   .text.MS_Host_GetMaxLUN:00000000 MS_Host_GetMaxLUN
C:\Users\david\AppData\Local\Temp\cctA7wHL.s:1218   .text.MS_Host_GetInquiryData:00000000 MS_Host_GetInquiryData
C:\Users\david\AppData\Local\Temp\cctA7wHL.s:1318   .text.MS_Host_TestUnitReady:00000000 MS_Host_TestUnitReady
C:\Users\david\AppData\Local\Temp\cctA7wHL.s:1408   .text.MS_Host_ReadDeviceCapacity:00000000 MS_Host_ReadDeviceCapacity
C:\Users\david\AppData\Local\Temp\cctA7wHL.s:1623   .text.MS_Host_RequestSense:00000000 MS_Host_RequestSense
C:\Users\david\AppData\Local\Temp\cctA7wHL.s:1723   .text.MS_Host_PreventAllowMediumRemoval:00000000 MS_Host_PreventAllowMediumRemoval
C:\Users\david\AppData\Local\Temp\cctA7wHL.s:1815   .text.MS_Host_ReadDeviceBlocks:00000000 MS_Host_ReadDeviceBlocks
C:\Users\david\AppData\Local\Temp\cctA7wHL.s:1959   .text.MS_Host_WriteDeviceBlocks:00000000 MS_Host_WriteDeviceBlocks

UNDEFINED SYMBOLS
USB_Host_ClearEndpointStall
USB_HostState
Pipe_Write_Stream_LE
Pipe_WaitUntilReady
Pipe_Read_Stream_LE
Pipe_IsEndpointBound
USB_GetNextDescriptorComp
Pipe_ConfigurePipe
USB_ControlRequest
USB_Host_SendControlRequest
__mulsi3
